Archive member included to satisfy reference by file (symbol)

/scratch3/NCEPDEV/nwprod/lib/nemsio/v2.2.1/libnemsio_v2.2.1.a(nemsio_openclose.o)
                              gfs_nems_interface.o (nemsio_openclose_mp_nemsio_open_)
/scratch3/NCEPDEV/nwprod/lib/nemsio/v2.2.1/libnemsio_v2.2.1.a(nemsio_read.o)
                              gfs_nems_interface.o (nemsio_read_mp_nemsio_readrecv4_)
/scratch3/NCEPDEV/nwprod/lib/nemsio/v2.2.1/libnemsio_v2.2.1.a(nemsio_write.o)
                              gfs_nems_interface.o (nemsio_write_mp_nemsio_writerecv4_)
/scratch3/NCEPDEV/nwprod/lib/bacio/v2.0.1/libbacio_v2.0.1_4.a(baciof.o)
                              /scratch3/NCEPDEV/nwprod/lib/nemsio/v2.2.1/libnemsio_v2.2.1.a(nemsio_openclose.o) (baopen_)
/scratch3/NCEPDEV/nwprod/lib/bacio/v2.0.1/libbacio_v2.0.1_4.a(bafrio.o)
                              /scratch3/NCEPDEV/nwprod/lib/nemsio/v2.2.1/libnemsio_v2.2.1.a(nemsio_openclose.o) (bafrreadl_)
/scratch3/NCEPDEV/nwprod/lib/bacio/v2.0.1/libbacio_v2.0.1_4.a(byteswap.o)
                              /scratch3/NCEPDEV/nwprod/lib/nemsio/v2.2.1/libnemsio_v2.2.1.a(nemsio_openclose.o) (byteswap_)
/scratch3/NCEPDEV/nwprod/lib/bacio/v2.0.1/libbacio_v2.0.1_4.a(chk_endianc.o)
                              /scratch3/NCEPDEV/nwprod/lib/nemsio/v2.2.1/libnemsio_v2.2.1.a(nemsio_openclose.o) (chk_endianc_)
/scratch3/NCEPDEV/nwprod/lib/bacio/v2.0.1/libbacio_v2.0.1_4.a(bacio.o)
                              /scratch3/NCEPDEV/nwprod/lib/bacio/v2.0.1/libbacio_v2.0.1_4.a(baciof.o) (baciol_)
/scratch3/NCEPDEV/nwprod/lib/w3nco/v2.0.6/libw3nco_v2.0.6_4.a(getgbm.o)
                              /scratch3/NCEPDEV/nwprod/lib/nemsio/v2.2.1/libnemsio_v2.2.1.a(nemsio_read.o) (getgbm_)
/scratch3/NCEPDEV/nwprod/lib/w3nco/v2.0.6/libw3nco_v2.0.6_4.a(getgi.o)
                              /scratch3/NCEPDEV/nwprod/lib/w3nco/v2.0.6/libw3nco_v2.0.6_4.a(getgbm.o) (getgi_)
/scratch3/NCEPDEV/nwprod/lib/w3nco/v2.0.6/libw3nco_v2.0.6_4.a(getgir.o)
                              /scratch3/NCEPDEV/nwprod/lib/w3nco/v2.0.6/libw3nco_v2.0.6_4.a(getgbm.o) (getgir_)
/scratch3/NCEPDEV/nwprod/lib/w3nco/v2.0.6/libw3nco_v2.0.6_4.a(ixgb.o)
                              /scratch3/NCEPDEV/nwprod/lib/w3nco/v2.0.6/libw3nco_v2.0.6_4.a(getgir.o) (ixgb_)
/scratch3/NCEPDEV/nwprod/lib/w3nco/v2.0.6/libw3nco_v2.0.6_4.a(lengds.o)
                              /scratch3/NCEPDEV/nwprod/lib/w3nco/v2.0.6/libw3nco_v2.0.6_4.a(getgbm.o) (lengds_)
/scratch3/NCEPDEV/nwprod/lib/w3nco/v2.0.6/libw3nco_v2.0.6_4.a(putgben.o)
                              /scratch3/NCEPDEV/nwprod/lib/nemsio/v2.2.1/libnemsio_v2.2.1.a(nemsio_write.o) (putgben_)
/scratch3/NCEPDEV/nwprod/lib/w3nco/v2.0.6/libw3nco_v2.0.6_4.a(r63w72.o)
                              /scratch3/NCEPDEV/nwprod/lib/w3nco/v2.0.6/libw3nco_v2.0.6_4.a(putgben.o) (r63w72_)
/scratch3/NCEPDEV/nwprod/lib/w3nco/v2.0.6/libw3nco_v2.0.6_4.a(sbytec.o)
                              /scratch3/NCEPDEV/nwprod/lib/w3nco/v2.0.6/libw3nco_v2.0.6_4.a(ixgb.o) (sbytec_)
/scratch3/NCEPDEV/nwprod/lib/w3nco/v2.0.6/libw3nco_v2.0.6_4.a(sbytesc.o)
                              /scratch3/NCEPDEV/nwprod/lib/w3nco/v2.0.6/libw3nco_v2.0.6_4.a(sbytec.o) (sbytesc_)
/scratch3/NCEPDEV/nwprod/lib/w3nco/v2.0.6/libw3nco_v2.0.6_4.a(skgb.o)
                              /scratch3/NCEPDEV/nwprod/lib/w3nco/v2.0.6/libw3nco_v2.0.6_4.a(getgir.o) (skgb_)
/scratch3/NCEPDEV/nwprod/lib/w3nco/v2.0.6/libw3nco_v2.0.6_4.a(w3fi68.o)
                              /scratch3/NCEPDEV/nwprod/lib/w3nco/v2.0.6/libw3nco_v2.0.6_4.a(putgben.o) (w3fi68_)
/scratch3/NCEPDEV/nwprod/lib/w3nco/v2.0.6/libw3nco_v2.0.6_4.a(w3fi72.o)
                              /scratch3/NCEPDEV/nwprod/lib/w3nco/v2.0.6/libw3nco_v2.0.6_4.a(putgben.o) (w3fi72_)
/scratch3/NCEPDEV/nwprod/lib/w3nco/v2.0.6/libw3nco_v2.0.6_4.a(w3fi73.o)
                              /scratch3/NCEPDEV/nwprod/lib/w3nco/v2.0.6/libw3nco_v2.0.6_4.a(w3fi72.o) (w3fi73_)
/scratch3/NCEPDEV/nwprod/lib/w3nco/v2.0.6/libw3nco_v2.0.6_4.a(w3fi74.o)
                              /scratch3/NCEPDEV/nwprod/lib/w3nco/v2.0.6/libw3nco_v2.0.6_4.a(w3fi72.o) (w3fi74_)
/scratch3/NCEPDEV/nwprod/lib/w3nco/v2.0.6/libw3nco_v2.0.6_4.a(w3fi75.o)
                              /scratch3/NCEPDEV/nwprod/lib/w3nco/v2.0.6/libw3nco_v2.0.6_4.a(w3fi72.o) (w3fi75_)
/scratch3/NCEPDEV/nwprod/lib/w3nco/v2.0.6/libw3nco_v2.0.6_4.a(w3fi76.o)
                              /scratch3/NCEPDEV/nwprod/lib/w3nco/v2.0.6/libw3nco_v2.0.6_4.a(w3fi75.o) (w3fi76_)
/scratch3/NCEPDEV/nwprod/lib/w3nco/v2.0.6/libw3nco_v2.0.6_4.a(w3fi82.o)
                              /scratch3/NCEPDEV/nwprod/lib/w3nco/v2.0.6/libw3nco_v2.0.6_4.a(w3fi75.o) (w3fi82_)
/scratch3/NCEPDEV/nwprod/lib/w3nco/v2.0.6/libw3nco_v2.0.6_4.a(mova2i.o)
                              /scratch3/NCEPDEV/nwprod/lib/w3nco/v2.0.6/libw3nco_v2.0.6_4.a(sbytesc.o) (mova2i_)
/scratch3/NCEPDEV/nwprod/lib/w3nco/v2.0.6/libw3nco_v2.0.6_4.a(gbytec.o)
                              /scratch3/NCEPDEV/nwprod/lib/w3nco/v2.0.6/libw3nco_v2.0.6_4.a(ixgb.o) (gbytec_)
/scratch3/NCEPDEV/nwprod/lib/w3nco/v2.0.6/libw3nco_v2.0.6_4.a(gbytesc.o)
                              /scratch3/NCEPDEV/nwprod/lib/w3nco/v2.0.6/libw3nco_v2.0.6_4.a(gbytec.o) (gbytesc_)
/scratch3/NCEPDEV/nwprod/lib/w3nco/v2.0.6/libw3nco_v2.0.6_4.a(getbit.o)
                              /scratch3/NCEPDEV/nwprod/lib/w3nco/v2.0.6/libw3nco_v2.0.6_4.a(putgben.o) (getbit_)
/scratch3/NCEPDEV/nwprod/lib/w3nco/v2.0.6/libw3nco_v2.0.6_4.a(getgb1r.o)
                              /scratch3/NCEPDEV/nwprod/lib/w3nco/v2.0.6/libw3nco_v2.0.6_4.a(getgbm.o) (getgb1r_)
/scratch3/NCEPDEV/nwprod/lib/w3nco/v2.0.6/libw3nco_v2.0.6_4.a(getgb1s.o)
                              /scratch3/NCEPDEV/nwprod/lib/w3nco/v2.0.6/libw3nco_v2.0.6_4.a(getgbm.o) (getgb1s_)
/scratch3/NCEPDEV/nwprod/lib/w3nco/v2.0.6/libw3nco_v2.0.6_4.a(pdsens.o)
                              /scratch3/NCEPDEV/nwprod/lib/w3nco/v2.0.6/libw3nco_v2.0.6_4.a(putgben.o) (pdsens_)
/scratch3/NCEPDEV/nwprod/lib/w3nco/v2.0.6/libw3nco_v2.0.6_4.a(pdseup.o)
                              /scratch3/NCEPDEV/nwprod/lib/w3nco/v2.0.6/libw3nco_v2.0.6_4.a(getgb1r.o) (pdseup_)
/scratch3/NCEPDEV/nwprod/lib/w3nco/v2.0.6/libw3nco_v2.0.6_4.a(w3fi01.o)
                              /scratch3/NCEPDEV/nwprod/lib/w3nco/v2.0.6/libw3nco_v2.0.6_4.a(pdsens.o) (w3fi01_)
/scratch3/NCEPDEV/nwprod/lib/w3nco/v2.0.6/libw3nco_v2.0.6_4.a(w3fi58.o)
                              /scratch3/NCEPDEV/nwprod/lib/w3nco/v2.0.6/libw3nco_v2.0.6_4.a(w3fi75.o) (w3fi58_)
/scratch3/NCEPDEV/nwprod/lib/w3nco/v2.0.6/libw3nco_v2.0.6_4.a(w3fi59.o)
                              /scratch3/NCEPDEV/nwprod/lib/w3nco/v2.0.6/libw3nco_v2.0.6_4.a(w3fi75.o) (w3fi59_)
/scratch3/NCEPDEV/nwprod/lib/w3nco/v2.0.6/libw3nco_v2.0.6_4.a(w3fi63.o)
                              /scratch3/NCEPDEV/nwprod/lib/w3nco/v2.0.6/libw3nco_v2.0.6_4.a(getgb1r.o) (w3fi63_)
/scratch3/NCEPDEV/nwprod/lib/w3nco/v2.0.6/libw3nco_v2.0.6_4.a(w3fi71.o)
                              /scratch3/NCEPDEV/nwprod/lib/w3nco/v2.0.6/libw3nco_v2.0.6_4.a(w3fi72.o) (w3fi71_)
/scratch3/NCEPDEV/nwprod/lib/w3nco/v2.0.6/libw3nco_v2.0.6_4.a(w3fi83.o)
                              /scratch3/NCEPDEV/nwprod/lib/w3nco/v2.0.6/libw3nco_v2.0.6_4.a(w3fi63.o) (w3fi83_)
/apps/netcdf/3.6.3-intel/lib/libnetcdf.a(netcdf.o)
                              fv3_interface.o (netcdf_mp_nf90_strerror_)
/apps/netcdf/3.6.3-intel/lib/libnetcdf.a(fort-attio.o)
                              /apps/netcdf/3.6.3-intel/lib/libnetcdf.a(netcdf.o) (nf_put_att_text_)
/apps/netcdf/3.6.3-intel/lib/libnetcdf.a(fort-control.o)
                              /apps/netcdf/3.6.3-intel/lib/libnetcdf.a(netcdf.o) (nf_inq_base_pe_)
/apps/netcdf/3.6.3-intel/lib/libnetcdf.a(fort-dim.o)
                              /apps/netcdf/3.6.3-intel/lib/libnetcdf.a(netcdf.o) (nf_def_dim_)
/apps/netcdf/3.6.3-intel/lib/libnetcdf.a(fort-genatt.o)
                              /apps/netcdf/3.6.3-intel/lib/libnetcdf.a(netcdf.o) (nf_inq_att_)
/apps/netcdf/3.6.3-intel/lib/libnetcdf.a(fort-geninq.o)
                              /apps/netcdf/3.6.3-intel/lib/libnetcdf.a(netcdf.o) (nf_inq_format_)
/apps/netcdf/3.6.3-intel/lib/libnetcdf.a(fort-genvar.o)
                              /apps/netcdf/3.6.3-intel/lib/libnetcdf.a(netcdf.o) (nf_def_var_)
/apps/netcdf/3.6.3-intel/lib/libnetcdf.a(fort-lib.o)
                              /apps/netcdf/3.6.3-intel/lib/libnetcdf.a(fort-genvar.o) (f2c_dimids)
/apps/netcdf/3.6.3-intel/lib/libnetcdf.a(fort-misc.o)
                              /apps/netcdf/3.6.3-intel/lib/libnetcdf.a(netcdf.o) (nf_strerror_)
/apps/netcdf/3.6.3-intel/lib/libnetcdf.a(fort-var1io.o)
                              /apps/netcdf/3.6.3-intel/lib/libnetcdf.a(netcdf.o) (nf_get_var1_double_)
/apps/netcdf/3.6.3-intel/lib/libnetcdf.a(fort-varaio.o)
                              /apps/netcdf/3.6.3-intel/lib/libnetcdf.a(netcdf.o) (nf_get_vara_double_)
/apps/netcdf/3.6.3-intel/lib/libnetcdf.a(fort-varmio.o)
                              /apps/netcdf/3.6.3-intel/lib/libnetcdf.a(netcdf.o) (nf_get_varm_double_)
/apps/netcdf/3.6.3-intel/lib/libnetcdf.a(fort-varsio.o)
                              /apps/netcdf/3.6.3-intel/lib/libnetcdf.a(netcdf.o) (nf_get_vars_double_)
/apps/netcdf/3.6.3-intel/lib/libnetcdf.a(attr.o)
                              /apps/netcdf/3.6.3-intel/lib/libnetcdf.a(fort-genatt.o) (nc_del_att)
/apps/netcdf/3.6.3-intel/lib/libnetcdf.a(ncx.o)
                              /apps/netcdf/3.6.3-intel/lib/libnetcdf.a(attr.o) (ncx_pad_getn_schar_short)
/apps/netcdf/3.6.3-intel/lib/libnetcdf.a(putget.o)
                              /apps/netcdf/3.6.3-intel/lib/libnetcdf.a(fort-varaio.o) (nc_get_vara_double)
/apps/netcdf/3.6.3-intel/lib/libnetcdf.a(dim.o)
                              /apps/netcdf/3.6.3-intel/lib/libnetcdf.a(fort-dim.o) (nc_inq_dimlen)
/apps/netcdf/3.6.3-intel/lib/libnetcdf.a(error.o)
                              /apps/netcdf/3.6.3-intel/lib/libnetcdf.a(fort-misc.o) (nc_strerror)
/apps/netcdf/3.6.3-intel/lib/libnetcdf.a(libvers.o)
                              /apps/netcdf/3.6.3-intel/lib/libnetcdf.a(fort-misc.o) (nc_inq_libvers)
/apps/netcdf/3.6.3-intel/lib/libnetcdf.a(nc.o)
                              /apps/netcdf/3.6.3-intel/lib/libnetcdf.a(attr.o) (NC_check_id)
/apps/netcdf/3.6.3-intel/lib/libnetcdf.a(string.o)
                              /apps/netcdf/3.6.3-intel/lib/libnetcdf.a(attr.o) (set_NC_string)
/apps/netcdf/3.6.3-intel/lib/libnetcdf.a(v1hpg.o)
                              /apps/netcdf/3.6.3-intel/lib/libnetcdf.a(nc.o) (ncx_len_NC)
/apps/netcdf/3.6.3-intel/lib/libnetcdf.a(var.o)
                              /apps/netcdf/3.6.3-intel/lib/libnetcdf.a(nc.o) (NC_check_vlen)
/apps/netcdf/3.6.3-intel/lib/libnetcdf.a(utf8proc.o)
                              /apps/netcdf/3.6.3-intel/lib/libnetcdf.a(string.o) (utf8proc_check)
/apps/netcdf/3.6.3-intel/lib/libnetcdf.a(posixio.o)
                              /apps/netcdf/3.6.3-intel/lib/libnetcdf.a(nc.o) (ncio_close)
/apps/intel/composer_xe_2013_sp1.2.144/compiler/lib/intel64/libifcoremt.a(for_close.o)
                              namelist_def.o (for_close)
/apps/intel/composer_xe_2013_sp1.2.144/compiler/lib/intel64/libifcoremt.a(for_close_proc.o)
                              /apps/intel/composer_xe_2013_sp1.2.144/compiler/lib/intel64/libifcoremt.a(for_close.o) (for__close_proc)
/apps/intel/composer_xe_2013_sp1.2.144/compiler/lib/intel64/libifcoremt.a(for_contig_array.o)
                              /apps/netcdf/3.6.3-intel/lib/libnetcdf.a(netcdf.o) (for_contig_array)
/apps/intel/composer_xe_2013_sp1.2.144/compiler/lib/intel64/libifcoremt.a(for_desc_item.o)
                              /apps/intel/composer_xe_2013_sp1.2.144/compiler/lib/intel64/libifcoremt.a(for_close.o) (for__key_desc_ret_item)
/apps/intel/composer_xe_2013_sp1.2.144/compiler/lib/intel64/libifcoremt.a(for_diags_intel.o)
                              /apps/intel/composer_xe_2013_sp1.2.144/compiler/lib/intel64/libifcoremt.a(for_close.o) (for__io_return)
/apps/intel/composer_xe_2013_sp1.2.144/compiler/lib/intel64/libifcoremt.a(for_exit_handler.o)
                              /apps/intel/composer_xe_2013_sp1.2.144/compiler/lib/intel64/libifcoremt.a(for_diags_intel.o) (for__exit_handler)
/apps/intel/composer_xe_2013_sp1.2.144/compiler/lib/intel64/libifcoremt.a(for_init.o)
                              /apps/intel/composer_xe_2013_sp1.2.144/compiler/lib/intel64/libifcoremt.a(for_diags_intel.o) (for__l_excpt_info)
/apps/intel/composer_xe_2013_sp1.2.144/compiler/lib/intel64/libifcoremt.a(for_inquire.o)
                              namelist_def.o (for_inquire)
/apps/intel/composer_xe_2013_sp1.2.144/compiler/lib/intel64/libifcoremt.a(for_io_util.o)
                              /apps/intel/composer_xe_2013_sp1.2.144/compiler/lib/intel64/libifcoremt.a(for_diags_intel.o) (for_check_env_name)
/apps/intel/composer_xe_2013_sp1.2.144/compiler/lib/intel64/libifcoremt.a(for_lub_mgt.o)
                              /apps/intel/composer_xe_2013_sp1.2.144/compiler/lib/intel64/libifcoremt.a(for_diags_intel.o) (for__release_lun)
/apps/intel/composer_xe_2013_sp1.2.144/compiler/lib/intel64/libifcoremt.a(for_need_lf.o)
                              /apps/intel/composer_xe_2013_sp1.2.144/compiler/lib/intel64/libifcoremt.a(for_close_proc.o) (for__rm_from_lf_table)
/apps/intel/composer_xe_2013_sp1.2.144/compiler/lib/intel64/libifcoremt.a(for_open.o)
                              namelist_def.o (for_open)
/apps/intel/composer_xe_2013_sp1.2.144/compiler/lib/intel64/libifcoremt.a(for_preconnected_units_init.o)
                              /apps/intel/composer_xe_2013_sp1.2.144/compiler/lib/intel64/libifcoremt.a(for_init.o) (for__preconnected_units_create)
/apps/intel/composer_xe_2013_sp1.2.144/compiler/lib/intel64/libifcoremt.a(for_put.o)
                              /apps/intel/composer_xe_2013_sp1.2.144/compiler/lib/intel64/libifcoremt.a(for_close_proc.o) (for__write_output)
/apps/intel/composer_xe_2013_sp1.2.144/compiler/lib/intel64/libifcoremt.a(for_reentrancy.o)
                              /tmp/ifort3qcMiK.o (for_set_reentrancy)
/apps/intel/composer_xe_2013_sp1.2.144/compiler/lib/intel64/libifcoremt.a(for_rint_fmt.o)
                              /scratch3/NCEPDEV/nwprod/lib/w3nco/v2.0.6/libw3nco_v2.0.6_4.a(getgi.o) (for_read_int_fmt)
/apps/intel/composer_xe_2013_sp1.2.144/compiler/lib/intel64/libifcoremt.a(for_rseq_nml.o)
                              namelist_def.o (for_read_seq_nml)
/apps/intel/composer_xe_2013_sp1.2.144/compiler/lib/intel64/libifcoremt.a(for_stop.o)
                              namelist_def.o (for_stop_core)
/apps/intel/composer_xe_2013_sp1.2.144/compiler/lib/intel64/libifcoremt.a(for_vm.o)
                              /apps/intel/composer_xe_2013_sp1.2.144/compiler/lib/intel64/libifcoremt.a(for_init.o) (for__set_signal_ops_during_vm)
/apps/intel/composer_xe_2013_sp1.2.144/compiler/lib/intel64/libifcoremt.a(for_wint_fmt.o)
                              /tmp/ifort3qcMiK.o (for_write_int_fmt)
/apps/intel/composer_xe_2013_sp1.2.144/compiler/lib/intel64/libifcoremt.a(for_wseq.o)
                              /apps/intel/composer_xe_2013_sp1.2.144/compiler/lib/intel64/libifcoremt.a(for_close_proc.o) (for__finish_ufseq_write)
/apps/intel/composer_xe_2013_sp1.2.144/compiler/lib/intel64/libifcoremt.a(for_wseq_fmt.o)
                              gfs_nems_interface.o (for_write_seq_fmt)
/apps/intel/composer_xe_2013_sp1.2.144/compiler/lib/intel64/libifcoremt.a(for_wseq_lis.o)
                              namelist_def.o (for_write_seq_lis)
/apps/intel/composer_xe_2013_sp1.2.144/compiler/lib/intel64/libifcoremt.a(for_wseq_nml.o)
                              namelist_def.o (for_write_seq_nml)
/apps/intel/composer_xe_2013_sp1.2.144/compiler/lib/intel64/libifcoremt.a(for_90_adjust.o)
                              variable_interface.o (for_adjustl)
/apps/intel/composer_xe_2013_sp1.2.144/compiler/lib/intel64/libifcoremt.a(for_90_trim.o)
                              /apps/netcdf/3.6.3-intel/lib/libnetcdf.a(netcdf.o) (for_len_trim)
/apps/intel/composer_xe_2013_sp1.2.144/compiler/lib/intel64/libifcoremt.a(for_f90str.o)
                              /scratch3/NCEPDEV/nwprod/lib/nemsio/v2.2.1/libnemsio_v2.2.1.a(nemsio_openclose.o) (for_cpystr)
/apps/intel/composer_xe_2013_sp1.2.144/compiler/lib/intel64/libifcoremt.a(tbk_traceback.o)
                              /apps/intel/composer_xe_2013_sp1.2.144/compiler/lib/intel64/libifcoremt.a(for_diags_intel.o) (tbk_stack_trace)
/apps/intel/composer_xe_2013_sp1.2.144/compiler/lib/intel64/libifcoremt.a(for_aio.o)
                              /apps/intel/composer_xe_2013_sp1.2.144/compiler/lib/intel64/libifcoremt.a(for_preconnected_units_init.o) (for__aio_lub_table)
/apps/intel/composer_xe_2013_sp1.2.144/compiler/lib/intel64/libifcoremt.a(for_open_proc.o)
                              /apps/intel/composer_xe_2013_sp1.2.144/compiler/lib/intel64/libifcoremt.a(for_open.o) (for__reopen_file)
/apps/intel/composer_xe_2013_sp1.2.144/compiler/lib/intel64/libifcoremt.a(for_aio_wrap.o)
                              /apps/intel/composer_xe_2013_sp1.2.144/compiler/lib/intel64/libifcoremt.a(for_aio.o) (for__aio_pthread_self)
/apps/intel/composer_xe_2013_sp1.2.144/compiler/lib/intel64/libifcoremt.a(cvt_vax_f.o)
                              /apps/intel/composer_xe_2013_sp1.2.144/compiler/lib/intel64/libifcoremt.a(for_io_util.o) (cvt_vax_f_to_ieee_single)
/apps/intel/composer_xe_2013_sp1.2.144/compiler/lib/intel64/libifcoremt.a(cvt_vax_d.o)
                              /apps/intel/composer_xe_2013_sp1.2.144/compiler/lib/intel64/libifcoremt.a(for_io_util.o) (cvt_vax_d_to_ieee_double)
/apps/intel/composer_xe_2013_sp1.2.144/compiler/lib/intel64/libifcoremt.a(cvt_vax_g.o)
                              /apps/intel/composer_xe_2013_sp1.2.144/compiler/lib/intel64/libifcoremt.a(for_io_util.o) (cvt_vax_g_to_ieee_double)
/apps/intel/composer_xe_2013_sp1.2.144/compiler/lib/intel64/libifcoremt.a(cvt_cray.o)
                              /apps/intel/composer_xe_2013_sp1.2.144/compiler/lib/intel64/libifcoremt.a(for_io_util.o) (cvt_cray_to_ieee_double)
/apps/intel/composer_xe_2013_sp1.2.144/compiler/lib/intel64/libifcoremt.a(cvt_ibm_short.o)
                              /apps/intel/composer_xe_2013_sp1.2.144/compiler/lib/intel64/libifcoremt.a(for_io_util.o) (cvt_ibm_short_to_ieee_single)
/apps/intel/composer_xe_2013_sp1.2.144/compiler/lib/intel64/libifcoremt.a(cvt_ibm_long.o)
                              /apps/intel/composer_xe_2013_sp1.2.144/compiler/lib/intel64/libifcoremt.a(for_io_util.o) (cvt_ibm_long_to_ieee_double)
/apps/intel/composer_xe_2013_sp1.2.144/compiler/lib/intel64/libifcoremt.a(cvt_ieee_double.o)
                              /apps/intel/composer_xe_2013_sp1.2.144/compiler/lib/intel64/libifcoremt.a(for_io_util.o) (cvt_ieee_double_to_cray)
/apps/intel/composer_xe_2013_sp1.2.144/compiler/lib/intel64/libifcoremt.a(cvt_ieee_single.o)
                              /apps/intel/composer_xe_2013_sp1.2.144/compiler/lib/intel64/libifcoremt.a(for_io_util.o) (cvt_ieee_single_to_ibm_short)
/apps/intel/composer_xe_2013_sp1.2.144/compiler/lib/intel64/libifcoremt.a(for_common_inquire.o)
                              /apps/intel/composer_xe_2013_sp1.2.144/compiler/lib/intel64/libifcoremt.a(for_inquire.o) (for__common_inquire)
/apps/intel/composer_xe_2013_sp1.2.144/compiler/lib/intel64/libifcoremt.a(for_default_io_sizes_env_init.o)
                              /apps/intel/composer_xe_2013_sp1.2.144/compiler/lib/intel64/libifcoremt.a(for_init.o) (for__default_io_sizes_env_init)
/apps/intel/composer_xe_2013_sp1.2.144/compiler/lib/intel64/libifcoremt.a(for_exit.o)
                              /apps/intel/composer_xe_2013_sp1.2.144/compiler/lib/intel64/libifcoremt.a(for_reentrancy.o) (for_exit)
/apps/intel/composer_xe_2013_sp1.2.144/compiler/lib/intel64/libifcoremt.a(for_fmt_comp.o)
                              /apps/intel/composer_xe_2013_sp1.2.144/compiler/lib/intel64/libifcoremt.a(for_rint_fmt.o) (for__format_compiler)
/apps/intel/composer_xe_2013_sp1.2.144/compiler/lib/intel64/libifcoremt.a(for_fmt_val.o)
                              /apps/intel/composer_xe_2013_sp1.2.144/compiler/lib/intel64/libifcoremt.a(for_wint_fmt.o) (for__format_value)
/apps/intel/composer_xe_2013_sp1.2.144/compiler/lib/intel64/libifcoremt.a(for_get.o)
                              /apps/intel/composer_xe_2013_sp1.2.144/compiler/lib/intel64/libifcoremt.a(for_rseq_nml.o) (for__get_s)
/apps/intel/composer_xe_2013_sp1.2.144/compiler/lib/intel64/libifcoremt.a(for_intrp_fmt.o)
                              /apps/intel/composer_xe_2013_sp1.2.144/compiler/lib/intel64/libifcoremt.a(for_rint_fmt.o) (for__interp_fmt)
/apps/intel/composer_xe_2013_sp1.2.144/compiler/lib/intel64/libifcoremt.a(for_ldir_wfs.o)
                              /apps/intel/composer_xe_2013_sp1.2.144/compiler/lib/intel64/libifcoremt.a(for_rseq_nml.o) (for__wfs_table)
/apps/intel/composer_xe_2013_sp1.2.144/compiler/lib/intel64/libifcoremt.a(for_rint_lis.o)
                              /apps/intel/composer_xe_2013_sp1.2.144/compiler/lib/intel64/libifcoremt.a(for_rseq_nml.o) (for_ri_cvt_2step)
/apps/intel/composer_xe_2013_sp1.2.144/compiler/lib/intel64/libifcoremt.a(for_rseq_lis.o)
                              /apps/intel/composer_xe_2013_sp1.2.144/compiler/lib/intel64/libifcoremt.a(for_rint_lis.o) (for__swallow_imaginary_part)
/apps/intel/composer_xe_2013_sp1.2.144/compiler/lib/intel64/libifcoremt.a(cvt__globals.o)
                              /apps/intel/composer_xe_2013_sp1.2.144/compiler/lib/intel64/libifcoremt.a(cvt_ieee_double.o) (vax_c)
/apps/intel/composer_xe_2013_sp1.2.144/compiler/lib/intel64/libifcoremt.a(cvt_int_to_text.o)
                              /apps/intel/composer_xe_2013_sp1.2.144/compiler/lib/intel64/libifcoremt.a(for_fmt_val.o) (cvt_integer_to_text)
/apps/intel/composer_xe_2013_sp1.2.144/compiler/lib/intel64/libifcoremt.a(cvt_data_to_text.o)
                              /apps/intel/composer_xe_2013_sp1.2.144/compiler/lib/intel64/libifcoremt.a(for_fmt_val.o) (cvt_data_to_text)
/apps/intel/composer_xe_2013_sp1.2.144/compiler/lib/intel64/libifcoremt.a(cvt_log_to_text.o)
                              /apps/intel/composer_xe_2013_sp1.2.144/compiler/lib/intel64/libifcoremt.a(for_fmt_val.o) (cvt_boolean_to_text_ex)
/apps/intel/composer_xe_2013_sp1.2.144/compiler/lib/intel64/libifcoremt.a(cvt_text_to_int.o)
                              /apps/intel/composer_xe_2013_sp1.2.144/compiler/lib/intel64/libifcoremt.a(for_default_io_sizes_env_init.o) (cvt_text_to_integer)
/apps/intel/composer_xe_2013_sp1.2.144/compiler/lib/intel64/libifcoremt.a(cvt_text_to_data.o)
                              /apps/intel/composer_xe_2013_sp1.2.144/compiler/lib/intel64/libifcoremt.a(for_fmt_val.o) (cvt_text_to_data)
/apps/intel/composer_xe_2013_sp1.2.144/compiler/lib/intel64/libifcoremt.a(cvt_text_to_log.o)
                              /apps/intel/composer_xe_2013_sp1.2.144/compiler/lib/intel64/libifcoremt.a(for_fmt_val.o) (cvt_text_to_boolean)
/apps/intel/composer_xe_2013_sp1.2.144/compiler/lib/intel64/libifcoremt.a(cvt_cvtas_t.o)
                              /apps/intel/composer_xe_2013_sp1.2.144/compiler/lib/intel64/libifcoremt.a(for_fmt_val.o) (cvt_ieee_t_to_text_ex)
/apps/intel/composer_xe_2013_sp1.2.144/compiler/lib/intel64/libifcoremt.a(cvt_cvtas_s.o)
                              /apps/intel/composer_xe_2013_sp1.2.144/compiler/lib/intel64/libifcoremt.a(for_fmt_val.o) (cvt_ieee_s_to_text_ex)
/apps/intel/composer_xe_2013_sp1.2.144/compiler/lib/intel64/libifcoremt.a(cvt_cvtas_x.o)
                              /apps/intel/composer_xe_2013_sp1.2.144/compiler/lib/intel64/libifcoremt.a(for_fmt_val.o) (cvt_ieee_x_to_text_ex)
/apps/intel/composer_xe_2013_sp1.2.144/compiler/lib/intel64/libifcoremt.a(cvtas_a_to_s.o)
                              /apps/intel/composer_xe_2013_sp1.2.144/compiler/lib/intel64/libifcoremt.a(cvt_cvtas_s.o) (cvtas_a_to_s)
/apps/intel/composer_xe_2013_sp1.2.144/compiler/lib/intel64/libifcoremt.a(cvtas_a_to_t.o)
                              /apps/intel/composer_xe_2013_sp1.2.144/compiler/lib/intel64/libifcoremt.a(cvt_cvtas_t.o) (cvtas_a_to_t)
/apps/intel/composer_xe_2013_sp1.2.144/compiler/lib/intel64/libifcoremt.a(cvtas_s_to_a.o)
                              /apps/intel/composer_xe_2013_sp1.2.144/compiler/lib/intel64/libifcoremt.a(cvt_cvtas_s.o) (cvtas_s_to_a)
/apps/intel/composer_xe_2013_sp1.2.144/compiler/lib/intel64/libifcoremt.a(cvtas_t_to_a.o)
                              /apps/intel/composer_xe_2013_sp1.2.144/compiler/lib/intel64/libifcoremt.a(cvt_cvtas_t.o) (cvtas_t_to_a)
/apps/intel/composer_xe_2013_sp1.2.144/compiler/lib/intel64/libifcoremt.a(cvtas_nan_s.o)
                              /apps/intel/composer_xe_2013_sp1.2.144/compiler/lib/intel64/libifcoremt.a(cvtas_a_to_s.o) (cvtas__nan_s)
/apps/intel/composer_xe_2013_sp1.2.144/compiler/lib/intel64/libifcoremt.a(cvtas_nan_t.o)
                              /apps/intel/composer_xe_2013_sp1.2.144/compiler/lib/intel64/libifcoremt.a(cvtas_a_to_t.o) (cvtas__nan_t)
/apps/intel/composer_xe_2013_sp1.2.144/compiler/lib/intel64/libifcoremt.a(cvtas_a_to_x.o)
                              /apps/intel/composer_xe_2013_sp1.2.144/compiler/lib/intel64/libifcoremt.a(cvt_cvtas_x.o) (cvtas_a_to_x)
/apps/intel/composer_xe_2013_sp1.2.144/compiler/lib/intel64/libifcoremt.a(cvtas_x_to_a.o)
                              /apps/intel/composer_xe_2013_sp1.2.144/compiler/lib/intel64/libifcoremt.a(cvt_cvtas_x.o) (cvtas_x_to_a)
/apps/intel/composer_xe_2013_sp1.2.144/compiler/lib/intel64/libifcoremt.a(cvtas_nan_x.o)
                              /apps/intel/composer_xe_2013_sp1.2.144/compiler/lib/intel64/libifcoremt.a(cvtas_a_to_x.o) (cvtas__nan_x)
/apps/intel/composer_xe_2013_sp1.2.144/compiler/lib/intel64/libifcoremt.a(cvtas_globals.o)
                              /apps/intel/composer_xe_2013_sp1.2.144/compiler/lib/intel64/libifcoremt.a(cvtas_a_to_t.o) (cvtas_pten_word)
/apps/intel/composer_xe_2013_sp1.2.144/compiler/lib/intel64/libifcoremt.a(cvtas_pow_ten_53.o)
                              /apps/intel/composer_xe_2013_sp1.2.144/compiler/lib/intel64/libifcoremt.a(cvtas_a_to_s.o) (cvtas_pten_t)
/apps/intel/composer_xe_2013_sp1.2.144/compiler/lib/intel64/libifcoremt.a(cvtas_pow_ten_64.o)
                              /apps/intel/composer_xe_2013_sp1.2.144/compiler/lib/intel64/libifcoremt.a(cvtas_a_to_t.o) (cvtas_pten_64)
/apps/intel/composer_xe_2013_sp1.2.144/compiler/lib/intel64/libifcoremt.a(cvtas_pow_ten_128.o)
                              /apps/intel/composer_xe_2013_sp1.2.144/compiler/lib/intel64/libifcoremt.a(cvtas_s_to_a.o) (cvtas_pten_128)
/apps/intel/composer_xe_2013_sp1.2.144/compiler/lib/intel64/libimf.a(asinf_stub.o)
                              /scratch3/NCEPDEV/nwprod/lib/nemsio/v2.2.1/libnemsio_v2.2.1.a(nemsio_openclose.o) (asinf)
/apps/intel/composer_xe_2013_sp1.2.144/compiler/lib/intel64/libimf.a(asin.o)
                              /scratch3/NCEPDEV/nwprod/lib/nemsio/v2.2.1/libnemsio_v2.2.1.a(nemsio_openclose.o) (asin)
/apps/intel/composer_xe_2013_sp1.2.144/compiler/lib/intel64/libimf.a(fetestexcept.o)
                              /apps/intel/composer_xe_2013_sp1.2.144/compiler/lib/intel64/libifcoremt.a(for_stop.o) (fetestexcept)
/apps/intel/composer_xe_2013_sp1.2.144/compiler/lib/intel64/libimf.a(f__powi4i4.o)
                              /scratch3/NCEPDEV/nwprod/lib/w3nco/v2.0.6/libw3nco_v2.0.6_4.a(pdseup.o) (__powi4i4)
/apps/intel/composer_xe_2013_sp1.2.144/compiler/lib/intel64/libimf.a(f__powr4i4.o)
                              /scratch3/NCEPDEV/nwprod/lib/w3nco/v2.0.6/libw3nco_v2.0.6_4.a(w3fi72.o) (__powr4i4)
/apps/intel/composer_xe_2013_sp1.2.144/compiler/lib/intel64/libimf.a(libm_error.o)
                              /apps/intel/composer_xe_2013_sp1.2.144/compiler/lib/intel64/libimf.a(asin.o) (__libm_error_support)
/apps/intel/composer_xe_2013_sp1.2.144/compiler/lib/intel64/libimf.a(log10f_stub.o)
                              /scratch3/NCEPDEV/nwprod/lib/nemsio/v2.2.1/libnemsio_v2.2.1.a(nemsio_write.o) (log10f)
/apps/intel/composer_xe_2013_sp1.2.144/compiler/lib/intel64/libimf.a(log10_stub.o)
                              /scratch3/NCEPDEV/nwprod/lib/nemsio/v2.2.1/libnemsio_v2.2.1.a(nemsio_write.o) (log10)
/apps/intel/composer_xe_2013_sp1.2.144/compiler/lib/intel64/libimf.a(logf_stub.o)
                              /scratch3/NCEPDEV/nwprod/lib/w3nco/v2.0.6/libw3nco_v2.0.6_4.a(w3fi76.o) (logf)
/apps/intel/composer_xe_2013_sp1.2.144/compiler/lib/intel64/libimf.a(matherrf.o)
                              /apps/intel/composer_xe_2013_sp1.2.144/compiler/lib/intel64/libimf.a(libm_error.o) (matherrf)
/apps/intel/composer_xe_2013_sp1.2.144/compiler/lib/intel64/libimf.a(matherrl.o)
                              /apps/intel/composer_xe_2013_sp1.2.144/compiler/lib/intel64/libimf.a(libm_error.o) (matherrl)
/apps/intel/composer_xe_2013_sp1.2.144/compiler/lib/intel64/libimf.a(matherr.o)
                              /apps/intel/composer_xe_2013_sp1.2.144/compiler/lib/intel64/libimf.a(libm_error.o) (matherr)
/apps/intel/composer_xe_2013_sp1.2.144/compiler/lib/intel64/libimf.a(asinf_ct.o)
                              /apps/intel/composer_xe_2013_sp1.2.144/compiler/lib/intel64/libimf.a(asinf_stub.o) (asinf.L)
/apps/intel/composer_xe_2013_sp1.2.144/compiler/lib/intel64/libimf.a(asinf_gen.o)
                              /apps/intel/composer_xe_2013_sp1.2.144/compiler/lib/intel64/libimf.a(asinf_stub.o) (asinf.A)
/apps/intel/composer_xe_2013_sp1.2.144/compiler/lib/intel64/libimf.a(log10_ct.o)
                              /apps/intel/composer_xe_2013_sp1.2.144/compiler/lib/intel64/libimf.a(log10_stub.o) (log10.L)
/apps/intel/composer_xe_2013_sp1.2.144/compiler/lib/intel64/libimf.a(log10f_ct.o)
                              /apps/intel/composer_xe_2013_sp1.2.144/compiler/lib/intel64/libimf.a(log10f_stub.o) (log10f.L)
/apps/intel/composer_xe_2013_sp1.2.144/compiler/lib/intel64/libimf.a(log10f_gen.o)
                              /apps/intel/composer_xe_2013_sp1.2.144/compiler/lib/intel64/libimf.a(log10f_stub.o) (log10f.A)
/apps/intel/composer_xe_2013_sp1.2.144/compiler/lib/intel64/libimf.a(log10_gen.o)
                              /apps/intel/composer_xe_2013_sp1.2.144/compiler/lib/intel64/libimf.a(log10_stub.o) (log10.A)
/apps/intel/composer_xe_2013_sp1.2.144/compiler/lib/intel64/libimf.a(logf_ct.o)
                              /apps/intel/composer_xe_2013_sp1.2.144/compiler/lib/intel64/libimf.a(logf_stub.o) (logf.L)
/apps/intel/composer_xe_2013_sp1.2.144/compiler/lib/intel64/libimf.a(logf_gen.o)
                              /apps/intel/composer_xe_2013_sp1.2.144/compiler/lib/intel64/libimf.a(logf_stub.o) (logf.A)
/apps/intel/composer_xe_2013_sp1.2.144/compiler/lib/intel64/libimf.a(logf_table.o)
                              /apps/intel/composer_xe_2013_sp1.2.144/compiler/lib/intel64/libimf.a(log10f_gen.o) (__libm_logf_table_256)
/apps/intel/composer_xe_2013_sp1.2.144/compiler/lib/intel64/libimf.a(rcp_table.o)
                              /apps/intel/composer_xe_2013_sp1.2.144/compiler/lib/intel64/libimf.a(log10f_gen.o) (__libm_rcp_table_256)
/apps/intel/composer_xe_2013_sp1.2.144/compiler/lib/intel64/libsvml.a(svml_dcos2_la_iface.o)
                              /scratch3/NCEPDEV/nwprod/lib/nemsio/v2.2.1/libnemsio_v2.2.1.a(nemsio_openclose.o) (__svml_cos2)
/apps/intel/composer_xe_2013_sp1.2.144/compiler/lib/intel64/libsvml.a(svml_dcos2_y8la.o)
                              /apps/intel/composer_xe_2013_sp1.2.144/compiler/lib/intel64/libsvml.a(svml_dcos2_la_iface.o) (__svml_cos2_y8)
/apps/intel/composer_xe_2013_sp1.2.144/compiler/lib/intel64/libsvml.a(svml_sroundf4_la_iface.o)
                              /scratch3/NCEPDEV/nwprod/lib/w3nco/v2.0.6/libw3nco_v2.0.6_4.a(w3fi72.o) (__svml_roundf4)
/apps/intel/composer_xe_2013_sp1.2.144/compiler/lib/intel64/libsvml.a(svml_sroundf4_y8la.o)
                              /apps/intel/composer_xe_2013_sp1.2.144/compiler/lib/intel64/libsvml.a(svml_sroundf4_la_iface.o) (__svml_roundf4_y8)
/apps/intel/composer_xe_2013_sp1.2.144/compiler/lib/intel64/libsvml.a(svml_d_feature_flag_.o)
                              /apps/intel/composer_xe_2013_sp1.2.144/compiler/lib/intel64/libsvml.a(svml_dcos2_la_iface.o) (__svml_feature_flag_init)
/apps/intel/composer_xe_2013_sp1.2.144/compiler/lib/intel64/libsvml.a(svml_dcos2_e7la.o)
                              /apps/intel/composer_xe_2013_sp1.2.144/compiler/lib/intel64/libsvml.a(svml_dcos2_la_iface.o) (__svml_cos2_e7)
/apps/intel/composer_xe_2013_sp1.2.144/compiler/lib/intel64/libsvml.a(svml_dcos2_exla.o)
                              /apps/intel/composer_xe_2013_sp1.2.144/compiler/lib/intel64/libsvml.a(svml_dcos2_la_iface.o) (__svml_cos2_ex)
/apps/intel/composer_xe_2013_sp1.2.144/compiler/lib/intel64/libsvml.a(svml_dcos2_h9la.o)
                              /apps/intel/composer_xe_2013_sp1.2.144/compiler/lib/intel64/libsvml.a(svml_dcos2_la_iface.o) (__svml_cos2_h9)
/apps/intel/composer_xe_2013_sp1.2.144/compiler/lib/intel64/libsvml.a(svml_s_round_data_exla.o)
                              /apps/intel/composer_xe_2013_sp1.2.144/compiler/lib/intel64/libsvml.a(svml_sroundf4_y8la.o) (__svml_sround_data)
/apps/intel/composer_xe_2013_sp1.2.144/compiler/lib/intel64/libsvml.a(svml_sroundf4_e7la.o)
                              /apps/intel/composer_xe_2013_sp1.2.144/compiler/lib/intel64/libsvml.a(svml_sroundf4_la_iface.o) (__svml_roundf4_e7)
/apps/intel/composer_xe_2013_sp1.2.144/compiler/lib/intel64/libsvml.a(svml_sroundf4_exla.o)
                              /apps/intel/composer_xe_2013_sp1.2.144/compiler/lib/intel64/libsvml.a(svml_sroundf4_la_iface.o) (__svml_roundf4_ex)
/apps/intel/composer_xe_2013_sp1.2.144/compiler/lib/intel64/libsvml.a(svml_sroundf4_h9la.o)
                              /apps/intel/composer_xe_2013_sp1.2.144/compiler/lib/intel64/libsvml.a(svml_sroundf4_la_iface.o) (__svml_roundf4_h9)
/apps/intel/composer_xe_2013_sp1.2.144/compiler/lib/intel64/libirc.a(q2ints.o)
                              /apps/intel/composer_xe_2013_sp1.2.144/compiler/lib/intel64/libifcoremt.a(for_rint_lis.o) (__qtoj)
/apps/intel/composer_xe_2013_sp1.2.144/compiler/lib/intel64/libirc.a(tbk_display.o)
                              /apps/intel/composer_xe_2013_sp1.2.144/compiler/lib/intel64/libifcoremt.a(tbk_traceback.o) (tbk_string_stack_signal)
/apps/intel/composer_xe_2013_sp1.2.144/compiler/lib/intel64/libirc.a(tbk_backtrace.o)
                              /apps/intel/composer_xe_2013_sp1.2.144/compiler/lib/intel64/libirc.a(tbk_display.o) (tbk_getPC)
/apps/intel/composer_xe_2013_sp1.2.144/compiler/lib/intel64/libirc.a(cpu_feature_disp.o)
                              /apps/intel/composer_xe_2013_sp1.2.144/compiler/lib/intel64/libimf.a(asinf_stub.o) (__intel_cpu_features_init_x)
/apps/intel/composer_xe_2013_sp1.2.144/compiler/lib/intel64/libirc.a(ia32_memcmp.o)
                              /apps/intel/composer_xe_2013_sp1.2.144/compiler/lib/intel64/libifcoremt.a(for_diags_intel.o) (_intel_fast_memcmp)
/apps/intel/composer_xe_2013_sp1.2.144/compiler/lib/intel64/libirc.a(fastmemcpy.o)
                              gfs_nems_interface.o (_intel_fast_memcpy)
/apps/intel/composer_xe_2013_sp1.2.144/compiler/lib/intel64/libirc.a(fastmemmove.o)
                              /apps/intel/composer_xe_2013_sp1.2.144/compiler/lib/intel64/libifcoremt.a(for_init.o) (_intel_fast_memmove)
/apps/intel/composer_xe_2013_sp1.2.144/compiler/lib/intel64/libirc.a(fastmemset.o)
                              fv3_interface.o (_intel_fast_memset)
/apps/intel/composer_xe_2013_sp1.2.144/compiler/lib/intel64/libirc.a(new_proc_init.o)
                              /apps/intel/composer_xe_2013_sp1.2.144/compiler/lib/intel64/for_main.o (__intel_new_feature_proc_init)
/apps/intel/composer_xe_2013_sp1.2.144/compiler/lib/intel64/libirc.a(sse2_strcspn.o)
                              /apps/intel/composer_xe_2013_sp1.2.144/compiler/lib/intel64/libifcoremt.a(for_wseq_nml.o) (__intel_sse2_strcspn)
/apps/intel/composer_xe_2013_sp1.2.144/compiler/lib/intel64/libirc.a(sse2_strcpy.o)
                              /apps/intel/composer_xe_2013_sp1.2.144/compiler/lib/intel64/libifcoremt.a(for_diags_intel.o) (__intel_sse2_strcpy)
/apps/intel/composer_xe_2013_sp1.2.144/compiler/lib/intel64/libirc.a(sse2_strncpy.o)
                              /apps/intel/composer_xe_2013_sp1.2.144/compiler/lib/intel64/libifcoremt.a(for_diags_intel.o) (__intel_sse2_strncpy)
/apps/intel/composer_xe_2013_sp1.2.144/compiler/lib/intel64/libirc.a(sse2_strlen.o)
                              /apps/intel/composer_xe_2013_sp1.2.144/compiler/lib/intel64/libifcoremt.a(for_diags_intel.o) (__intel_sse2_strlen)
/apps/intel/composer_xe_2013_sp1.2.144/compiler/lib/intel64/libirc.a(sse2_strchr.o)
                              /apps/intel/composer_xe_2013_sp1.2.144/compiler/lib/intel64/libifcoremt.a(for_diags_intel.o) (__intel_sse2_strchr)
/apps/intel/composer_xe_2013_sp1.2.144/compiler/lib/intel64/libirc.a(sse2_strncmp.o)
                              /apps/intel/composer_xe_2013_sp1.2.144/compiler/lib/intel64/libifcoremt.a(for_diags_intel.o) (__intel_sse2_strncmp)
/apps/intel/composer_xe_2013_sp1.2.144/compiler/lib/intel64/libirc.a(sse2_strcat.o)
                              /apps/intel/composer_xe_2013_sp1.2.144/compiler/lib/intel64/libifcoremt.a(tbk_traceback.o) (__intel_sse2_strcat)
/apps/intel/composer_xe_2013_sp1.2.144/compiler/lib/intel64/libirc.a(sse2_strncat.o)
                              /apps/intel/composer_xe_2013_sp1.2.144/compiler/lib/intel64/libifcoremt.a(for_open_proc.o) (__intel_sse2_strncat)
/apps/intel/composer_xe_2013_sp1.2.144/compiler/lib/intel64/libirc.a(fast_memcpy_pp.o)
                              /apps/intel/composer_xe_2013_sp1.2.144/compiler/lib/intel64/libirc.a(fastmemcpy.o) (__intel_new_memcpy)
/apps/intel/composer_xe_2013_sp1.2.144/compiler/lib/intel64/libirc.a(fast_memset_pp.o)
                              /apps/intel/composer_xe_2013_sp1.2.144/compiler/lib/intel64/libirc.a(fastmemset.o) (__intel_new_memset)
/apps/intel/composer_xe_2013_sp1.2.144/compiler/lib/intel64/libirc.a(intel_ssse3_memcpy.o)
                              /apps/intel/composer_xe_2013_sp1.2.144/compiler/lib/intel64/libirc.a(fastmemcpy.o) (__intel_ssse3_memcpy)
/apps/intel/composer_xe_2013_sp1.2.144/compiler/lib/intel64/libirc.a(intel_ssse3_rep_memcpy.o)
                              /scratch3/NCEPDEV/nwprod/lib/bacio/v2.0.1/libbacio_v2.0.1_4.a(baciof.o) (__intel_ssse3_rep_memcpy)
/apps/intel/composer_xe_2013_sp1.2.144/compiler/lib/intel64/libirc.a(intel_ssse3_memmove.o)
                              /apps/intel/composer_xe_2013_sp1.2.144/compiler/lib/intel64/libirc.a(fastmemmove.o) (__intel_ssse3_memmove)
/apps/intel/composer_xe_2013_sp1.2.144/compiler/lib/intel64/libirc.a(intel_ssse3_rep_memmove.o)
                              /scratch3/NCEPDEV/nwprod/lib/bacio/v2.0.1/libbacio_v2.0.1_4.a(baciof.o) (__intel_ssse3_rep_memmove)
/apps/intel/composer_xe_2013_sp1.2.144/compiler/lib/intel64/libirc.a(irc_msg_support.o)
                              /apps/intel/composer_xe_2013_sp1.2.144/compiler/lib/intel64/libirc.a(tbk_backtrace.o) (__libirc_get_msg)
/apps/intel/composer_xe_2013_sp1.2.144/compiler/lib/intel64/libirc.a(fast_mem_ops.o)
                              /apps/intel/composer_xe_2013_sp1.2.144/compiler/lib/intel64/libirc.a(fast_memset_pp.o) (__libirc_largest_cache_size)
/apps/intel/composer_xe_2013_sp1.2.144/compiler/lib/intel64/libirc.a(proc_init_utils.o)
                              /apps/intel/composer_xe_2013_sp1.2.144/compiler/lib/intel64/libirc.a(new_proc_init.o) (__intel_proc_init_ftzdazule)
/usr/lib64/libc_nonshared.a(elf-init.oS)
                              /usr/lib/gcc/x86_64-redhat-linux/4.8.5/../../../../lib64/crt1.o (__libc_csu_init)

Allocating common symbols
Common symbol       size              file

constants_mp_factor1_
                    0x4               constants.o
gfs_nems_interface_mp_nemsio_iret_
                    0x4               gfs_nems_interface.o
constants_mp_ozcon_
                    0x4               constants.o
nemsio_read_mp_mymbuf_
                    0x4               /scratch3/NCEPDEV/nwprod/lib/nemsio/v2.2.1/libnemsio_v2.2.1.a(nemsio_read.o)
constants_mp_fv_    0x4               constants.o
constants_mp_huge_i_kind_
                    0x4               constants.o
thread_count_mutex  0x28              /apps/intel/composer_xe_2013_sp1.2.144/compiler/lib/intel64/libifcoremt.a(for_aio.o)
nemsio_read_mp_mygfname_
                    0xff              /scratch3/NCEPDEV/nwprod/lib/nemsio/v2.2.1/libnemsio_v2.2.1.a(nemsio_read.o)
nemsio_write_mp_kens_
                    0x4               /scratch3/NCEPDEV/nwprod/lib/nemsio/v2.2.1/libnemsio_v2.2.1.a(nemsio_write.o)
nemsio_read_mp_mymnum_
                    0x4               /scratch3/NCEPDEV/nwprod/lib/nemsio/v2.2.1/libnemsio_v2.2.1.a(nemsio_read.o)
mpipriv1_           0x1c              /tmp/ifort3qcMiK.o
mpiprivc_           0x2               /tmp/ifort3qcMiK.o
nemsio_read_mp_mydimx_
                    0x4               /scratch3/NCEPDEV/nwprod/lib/nemsio/v2.2.1/libnemsio_v2.2.1.a(nemsio_read.o)
constants_mp_el2orc_
                    0x4               constants.o
nemsio_write_mp_myfieldsize_
                    0x4               /scratch3/NCEPDEV/nwprod/lib/nemsio/v2.2.1/libnemsio_v2.2.1.a(nemsio_write.o)
constants_mp_cg_term_
                    0x4               constants.o
nemsio_read_mp_mytlmeta_
                    0x4               /scratch3/NCEPDEV/nwprod/lib/nemsio/v2.2.1/libnemsio_v2.2.1.a(nemsio_read.o)
constants_mp_rv_    0x4               constants.o
constants_mp_rearth_
                    0x4               constants.o
nemsio_read_mp_do_byteswap_
                    0x4               /scratch3/NCEPDEV/nwprod/lib/nemsio/v2.2.1/libnemsio_v2.2.1.a(nemsio_read.o)
threads_in_flight_mutex
                    0x28              /apps/intel/composer_xe_2013_sp1.2.144/compiler/lib/intel64/libifcoremt.a(for_aio.o)
constants_mp_rad2deg_
                    0x4               constants.o
constants_mp_tpwcon_
                    0x4               constants.o
nemsio_read_mp_mydimz_
                    0x4               /scratch3/NCEPDEV/nwprod/lib/nemsio/v2.2.1/libnemsio_v2.2.1.a(nemsio_read.o)
for__pthread_mutex_unlock_ptr
                    0x8               /apps/intel/composer_xe_2013_sp1.2.144/compiler/lib/intel64/libifcoremt.a(for_aio.o)
constants_mp_pi_    0x4               constants.o
constants_mp_grav_  0x4               constants.o
nemsio_write_mp_mydimy_
                    0x4               /scratch3/NCEPDEV/nwprod/lib/nemsio/v2.2.1/libnemsio_v2.2.1.a(nemsio_write.o)
constants_mp_rd_over_g_
                    0x4               constants.o
constants_mp_gamma_
                    0x4               constants.o
nemsio_read_mp_myfieldsize_
                    0x4               /scratch3/NCEPDEV/nwprod/lib/nemsio/v2.2.1/libnemsio_v2.2.1.a(nemsio_read.o)
constants_mp_rd_    0x4               constants.o
for__a_argv         0x8               /apps/intel/composer_xe_2013_sp1.2.144/compiler/lib/intel64/libifcoremt.a(for_init.o)
constants_mp_omeps_
                    0x4               constants.o
constants_mp_rd_over_cp_mass_
                    0x4               constants.o
constants_mp_xb_    0x4               constants.o
constants_mp_tiny_single_
                    0x4               constants.o
for__pthread_mutex_init_ptr
                    0x8               /apps/intel/composer_xe_2013_sp1.2.144/compiler/lib/intel64/libifcoremt.a(for_aio.o)
nemsio_write_mp_mydimx_
                    0x4               /scratch3/NCEPDEV/nwprod/lib/nemsio/v2.2.1/libnemsio_v2.2.1.a(nemsio_write.o)
nemsio_write_mp_mytlmeta_
                    0x4               /scratch3/NCEPDEV/nwprod/lib/nemsio/v2.2.1/libnemsio_v2.2.1.a(nemsio_write.o)
nemsio_read_mp_myflunit_
                    0x4               /scratch3/NCEPDEV/nwprod/lib/nemsio/v2.2.1/libnemsio_v2.2.1.a(nemsio_read.o)
nemsio_read_mp_mygdatatype_
                    0x8               /scratch3/NCEPDEV/nwprod/lib/nemsio/v2.2.1/libnemsio_v2.2.1.a(nemsio_read.o)
mpipriv2_           0x18              /tmp/ifort3qcMiK.o
constants_mp_cpr_   0x4               constants.o
constants_mp_deg2rad_
                    0x4               constants.o
constants_mp_dldt_  0x4               constants.o
constants_mp_eps_   0x4               constants.o
nemsio_write_mp_mygdatatype_
                    0x8               /scratch3/NCEPDEV/nwprod/lib/nemsio/v2.2.1/libnemsio_v2.2.1.a(nemsio_write.o)
constants_mp_cp_mass_
                    0x4               constants.o
constants_mp_tiny_r_kind_
                    0x4               constants.o
mpifcmb9_           0x4               /tmp/ifort3qcMiK.o
message_catalog     0x8               /apps/intel/composer_xe_2013_sp1.2.144/compiler/lib/intel64/libifcoremt.a(for_diags_intel.o)
nemsio_write_mp_myflunit_
                    0x4               /scratch3/NCEPDEV/nwprod/lib/nemsio/v2.2.1/libnemsio_v2.2.1.a(nemsio_write.o)
nemsio_write_mp_nbits_
                    0x4               /scratch3/NCEPDEV/nwprod/lib/nemsio/v2.2.1/libnemsio_v2.2.1.a(nemsio_write.o)
constants_mp_rd_over_cp_
                    0x4               constants.o
constants_mp_xai_   0x4               constants.o
for__pthread_mutex_lock_ptr
                    0x8               /apps/intel/composer_xe_2013_sp1.2.144/compiler/lib/intel64/libifcoremt.a(for_aio.o)
constants_mp_g_over_rd_
                    0x4               constants.o
nemsio_write_mp_mydimz_
                    0x4               /scratch3/NCEPDEV/nwprod/lib/nemsio/v2.2.1/libnemsio_v2.2.1.a(nemsio_write.o)
constants_mp_epsm1_
                    0x4               constants.o
constants_mp_huge_r_kind_
                    0x4               constants.o
nemsio_write_mp_do_byteswap_
                    0x4               /scratch3/NCEPDEV/nwprod/lib/nemsio/v2.2.1/libnemsio_v2.2.1.a(nemsio_write.o)
constants_mp_cliq_  0x4               constants.o
constants_mp_huge_single_
                    0x4               constants.o
mpifcmb5_           0x4               /tmp/ifort3qcMiK.o
for__l_argc         0x4               /apps/intel/composer_xe_2013_sp1.2.144/compiler/lib/intel64/libifcoremt.a(for_init.o)
for__aio_lub_table  0x400             /apps/intel/composer_xe_2013_sp1.2.144/compiler/lib/intel64/libifcoremt.a(for_aio.o)
nemsio_write_mp_ibs_
                    0x4               /scratch3/NCEPDEV/nwprod/lib/nemsio/v2.2.1/libnemsio_v2.2.1.a(nemsio_write.o)
constants_mp_rozcon_
                    0x4               constants.o
constants_mp_xa_    0x4               constants.o
nemsio_read_mp_mynlen_
                    0x4               /scratch3/NCEPDEV/nwprod/lib/nemsio/v2.2.1/libnemsio_v2.2.1.a(nemsio_read.o)
constants_mp_eccentricity_linear_
                    0x4               constants.o
__BLNK__            0x4               /scratch3/NCEPDEV/nwprod/lib/bacio/v2.0.1/libbacio_v2.0.1_4.a(chk_endianc.o)
nemsio_read_mp_mynnum_
                    0x4               /scratch3/NCEPDEV/nwprod/lib/nemsio/v2.2.1/libnemsio_v2.2.1.a(nemsio_read.o)
nemsio_write_mp_mynframe_
                    0x4               /scratch3/NCEPDEV/nwprod/lib/nemsio/v2.2.1/libnemsio_v2.2.1.a(nemsio_write.o)
constants_mp_factor2_
                    0x4               constants.o
constants_mp_cv_    0x4               constants.o
constants_mp_eccentricity_
                    0x4               constants.o
nemsio_read_mp_mydimy_
                    0x4               /scratch3/NCEPDEV/nwprod/lib/nemsio/v2.2.1/libnemsio_v2.2.1.a(nemsio_read.o)
constants_mp_xbi_   0x4               constants.o
nemsio_read_mp_mynframe_
                    0x4               /scratch3/NCEPDEV/nwprod/lib/nemsio/v2.2.1/libnemsio_v2.2.1.a(nemsio_read.o)

Discarded input sections

 .note.GNU-stack
                0x0000000000000000        0x0 /usr/lib/gcc/x86_64-redhat-linux/4.8.5/../../../../lib64/crt1.o
 .note.GNU-stack
                0x0000000000000000        0x0 /usr/lib/gcc/x86_64-redhat-linux/4.8.5/../../../../lib64/crti.o
 .note.GNU-stack
                0x0000000000000000        0x0 /usr/lib/gcc/x86_64-redhat-linux/4.8.5/crtbegin.o
 .note.GNU-stack
                0x0000000000000000        0x0 /apps/intel/composer_xe_2013_sp1.2.144/compiler/lib/intel64/for_main.o
 .note.GNU-stack
                0x0000000000000000        0x0 kinds.o
 .note.GNU-stack
                0x0000000000000000        0x0 constants.o
 .note.GNU-stack
                0x0000000000000000        0x0 namelist_def.o
 .note.GNU-stack
                0x0000000000000000        0x0 variable_interface.o
 .note.GNU-stack
                0x0000000000000000        0x0 gfs_nems_interface.o
 .note.GNU-stack
                0x0000000000000000        0x0 fv3_interface.o
 .note.GNU-stack
                0x0000000000000000        0x0 calc_increment_interface.o
 .note.GNU-stack
                0x0000000000000000        0x0 /tmp/ifort3qcMiK.o
 .note.GNU-stack
                0x0000000000000000        0x0 /scratch3/NCEPDEV/nwprod/lib/nemsio/v2.2.1/libnemsio_v2.2.1.a(nemsio_openclose.o)
 .note.GNU-stack
                0x0000000000000000        0x0 /scratch3/NCEPDEV/nwprod/lib/nemsio/v2.2.1/libnemsio_v2.2.1.a(nemsio_read.o)
 .note.GNU-stack
                0x0000000000000000        0x0 /scratch3/NCEPDEV/nwprod/lib/nemsio/v2.2.1/libnemsio_v2.2.1.a(nemsio_write.o)
 .note.GNU-stack
                0x0000000000000000        0x0 /scratch3/NCEPDEV/nwprod/lib/bacio/v2.0.1/libbacio_v2.0.1_4.a(baciof.o)
 .note.GNU-stack
                0x0000000000000000        0x0 /scratch3/NCEPDEV/nwprod/lib/bacio/v2.0.1/libbacio_v2.0.1_4.a(bafrio.o)
 .note.GNU-stack
                0x0000000000000000        0x0 /scratch3/NCEPDEV/nwprod/lib/bacio/v2.0.1/libbacio_v2.0.1_4.a(byteswap.o)
 .note.GNU-stack
                0x0000000000000000        0x0 /scratch3/NCEPDEV/nwprod/lib/bacio/v2.0.1/libbacio_v2.0.1_4.a(chk_endianc.o)
 .note.GNU-stack
                0x0000000000000000        0x0 /scratch3/NCEPDEV/nwprod/lib/bacio/v2.0.1/libbacio_v2.0.1_4.a(bacio.o)
 .note.GNU-stack
                0x0000000000000000        0x0 /scratch3/NCEPDEV/nwprod/lib/w3nco/v2.0.6/libw3nco_v2.0.6_4.a(getgbm.o)
 .note.GNU-stack
                0x0000000000000000        0x0 /scratch3/NCEPDEV/nwprod/lib/w3nco/v2.0.6/libw3nco_v2.0.6_4.a(getgi.o)
 .note.GNU-stack
                0x0000000000000000        0x0 /scratch3/NCEPDEV/nwprod/lib/w3nco/v2.0.6/libw3nco_v2.0.6_4.a(getgir.o)
 .note.GNU-stack
                0x0000000000000000        0x0 /scratch3/NCEPDEV/nwprod/lib/w3nco/v2.0.6/libw3nco_v2.0.6_4.a(ixgb.o)
 .note.GNU-stack
                0x0000000000000000        0x0 /scratch3/NCEPDEV/nwprod/lib/w3nco/v2.0.6/libw3nco_v2.0.6_4.a(lengds.o)
 .note.GNU-stack
                0x0000000000000000        0x0 /scratch3/NCEPDEV/nwprod/lib/w3nco/v2.0.6/libw3nco_v2.0.6_4.a(putgben.o)
 .note.GNU-stack
                0x0000000000000000        0x0 /scratch3/NCEPDEV/nwprod/lib/w3nco/v2.0.6/libw3nco_v2.0.6_4.a(r63w72.o)
 .note.GNU-stack
                0x0000000000000000        0x0 /scratch3/NCEPDEV/nwprod/lib/w3nco/v2.0.6/libw3nco_v2.0.6_4.a(sbytec.o)
 .note.GNU-stack
                0x0000000000000000        0x0 /scratch3/NCEPDEV/nwprod/lib/w3nco/v2.0.6/libw3nco_v2.0.6_4.a(sbytesc.o)
 .note.GNU-stack
                0x0000000000000000        0x0 /scratch3/NCEPDEV/nwprod/lib/w3nco/v2.0.6/libw3nco_v2.0.6_4.a(skgb.o)
 .note.GNU-stack
                0x0000000000000000        0x0 /scratch3/NCEPDEV/nwprod/lib/w3nco/v2.0.6/libw3nco_v2.0.6_4.a(w3fi68.o)
 .note.GNU-stack
                0x0000000000000000        0x0 /scratch3/NCEPDEV/nwprod/lib/w3nco/v2.0.6/libw3nco_v2.0.6_4.a(w3fi72.o)
 .note.GNU-stack
                0x0000000000000000        0x0 /scratch3/NCEPDEV/nwprod/lib/w3nco/v2.0.6/libw3nco_v2.0.6_4.a(w3fi73.o)
 .note.GNU-stack
                0x0000000000000000        0x0 /scratch3/NCEPDEV/nwprod/lib/w3nco/v2.0.6/libw3nco_v2.0.6_4.a(w3fi74.o)
 .note.GNU-stack
                0x0000000000000000        0x0 /scratch3/NCEPDEV/nwprod/lib/w3nco/v2.0.6/libw3nco_v2.0.6_4.a(w3fi75.o)
 .note.GNU-stack
                0x0000000000000000        0x0 /scratch3/NCEPDEV/nwprod/lib/w3nco/v2.0.6/libw3nco_v2.0.6_4.a(w3fi76.o)
 .note.GNU-stack
                0x0000000000000000        0x0 /scratch3/NCEPDEV/nwprod/lib/w3nco/v2.0.6/libw3nco_v2.0.6_4.a(w3fi82.o)
 .note.GNU-stack
                0x0000000000000000        0x0 /scratch3/NCEPDEV/nwprod/lib/w3nco/v2.0.6/libw3nco_v2.0.6_4.a(mova2i.o)
 .note.GNU-stack
                0x0000000000000000        0x0 /scratch3/NCEPDEV/nwprod/lib/w3nco/v2.0.6/libw3nco_v2.0.6_4.a(gbytec.o)
 .note.GNU-stack
                0x0000000000000000        0x0 /scratch3/NCEPDEV/nwprod/lib/w3nco/v2.0.6/libw3nco_v2.0.6_4.a(gbytesc.o)
 .note.GNU-stack
                0x0000000000000000        0x0 /scratch3/NCEPDEV/nwprod/lib/w3nco/v2.0.6/libw3nco_v2.0.6_4.a(getbit.o)
 .note.GNU-stack
                0x0000000000000000        0x0 /scratch3/NCEPDEV/nwprod/lib/w3nco/v2.0.6/libw3nco_v2.0.6_4.a(getgb1r.o)
 .note.GNU-stack
                0x0000000000000000        0x0 /scratch3/NCEPDEV/nwprod/lib/w3nco/v2.0.6/libw3nco_v2.0.6_4.a(getgb1s.o)
 .note.GNU-stack
                0x0000000000000000        0x0 /scratch3/NCEPDEV/nwprod/lib/w3nco/v2.0.6/libw3nco_v2.0.6_4.a(pdsens.o)
 .note.GNU-stack
                0x0000000000000000        0x0 /scratch3/NCEPDEV/nwprod/lib/w3nco/v2.0.6/libw3nco_v2.0.6_4.a(pdseup.o)
 .note.GNU-stack
                0x0000000000000000        0x0 /scratch3/NCEPDEV/nwprod/lib/w3nco/v2.0.6/libw3nco_v2.0.6_4.a(w3fi01.o)
 .note.GNU-stack
                0x0000000000000000        0x0 /scratch3/NCEPDEV/nwprod/lib/w3nco/v2.0.6/libw3nco_v2.0.6_4.a(w3fi58.o)
 .note.GNU-stack
                0x0000000000000000        0x0 /scratch3/NCEPDEV/nwprod/lib/w3nco/v2.0.6/libw3nco_v2.0.6_4.a(w3fi59.o)
 .note.GNU-stack
                0x0000000000000000        0x0 /scratch3/NCEPDEV/nwprod/lib/w3nco/v2.0.6/libw3nco_v2.0.6_4.a(w3fi63.o)
 .note.GNU-stack
                0x0000000000000000        0x0 /scratch3/NCEPDEV/nwprod/lib/w3nco/v2.0.6/libw3nco_v2.0.6_4.a(w3fi71.o)
 .note.GNU-stack
                0x0000000000000000        0x0 /scratch3/NCEPDEV/nwprod/lib/w3nco/v2.0.6/libw3nco_v2.0.6_4.a(w3fi83.o)
 .note.GNU-stack
                0x0000000000000000        0x0 /apps/netcdf/3.6.3-intel/lib/libnetcdf.a(netcdf.o)
 .note.GNU-stack
                0x0000000000000000        0x0 /apps/netcdf/3.6.3-intel/lib/libnetcdf.a(fort-attio.o)
 .note.GNU-stack
                0x0000000000000000        0x0 /apps/netcdf/3.6.3-intel/lib/libnetcdf.a(fort-control.o)
 .note.GNU-stack
                0x0000000000000000        0x0 /apps/netcdf/3.6.3-intel/lib/libnetcdf.a(fort-dim.o)
 .note.GNU-stack
                0x0000000000000000        0x0 /apps/netcdf/3.6.3-intel/lib/libnetcdf.a(fort-genatt.o)
 .note.GNU-stack
                0x0000000000000000        0x0 /apps/netcdf/3.6.3-intel/lib/libnetcdf.a(fort-geninq.o)
 .note.GNU-stack
                0x0000000000000000        0x0 /apps/netcdf/3.6.3-intel/lib/libnetcdf.a(fort-genvar.o)
 .note.GNU-stack
                0x0000000000000000        0x0 /apps/netcdf/3.6.3-intel/lib/libnetcdf.a(fort-lib.o)
 .note.GNU-stack
                0x0000000000000000        0x0 /apps/netcdf/3.6.3-intel/lib/libnetcdf.a(fort-misc.o)
 .note.GNU-stack
                0x0000000000000000        0x0 /apps/netcdf/3.6.3-intel/lib/libnetcdf.a(fort-var1io.o)
 .note.GNU-stack
                0x0000000000000000        0x0 /apps/netcdf/3.6.3-intel/lib/libnetcdf.a(fort-varaio.o)
 .note.GNU-stack
                0x0000000000000000        0x0 /apps/netcdf/3.6.3-intel/lib/libnetcdf.a(fort-varmio.o)
 .note.GNU-stack
                0x0000000000000000        0x0 /apps/netcdf/3.6.3-intel/lib/libnetcdf.a(fort-varsio.o)
 .note.GNU-stack
                0x0000000000000000        0x0 /apps/netcdf/3.6.3-intel/lib/libnetcdf.a(attr.o)
 .note.GNU-stack
                0x0000000000000000        0x0 /apps/netcdf/3.6.3-intel/lib/libnetcdf.a(ncx.o)
 .note.GNU-stack
                0x0000000000000000        0x0 /apps/netcdf/3.6.3-intel/lib/libnetcdf.a(putget.o)
 .note.GNU-stack
                0x0000000000000000        0x0 /apps/netcdf/3.6.3-intel/lib/libnetcdf.a(dim.o)
 .note.GNU-stack
                0x0000000000000000        0x0 /apps/netcdf/3.6.3-intel/lib/libnetcdf.a(error.o)
 .note.GNU-stack
                0x0000000000000000        0x0 /apps/netcdf/3.6.3-intel/lib/libnetcdf.a(libvers.o)
 .note.GNU-stack
                0x0000000000000000        0x0 /apps/netcdf/3.6.3-intel/lib/libnetcdf.a(nc.o)
 .note.GNU-stack
                0x0000000000000000        0x0 /apps/netcdf/3.6.3-intel/lib/libnetcdf.a(string.o)
 .note.GNU-stack
                0x0000000000000000        0x0 /apps/netcdf/3.6.3-intel/lib/libnetcdf.a(v1hpg.o)
 .note.GNU-stack
                0x0000000000000000        0x0 /apps/netcdf/3.6.3-intel/lib/libnetcdf.a(var.o)
 .note.GNU-stack
                0x0000000000000000        0x0 /apps/netcdf/3.6.3-intel/lib/libnetcdf.a(utf8proc.o)
 .note.GNU-stack
                0x0000000000000000        0x0 /apps/netcdf/3.6.3-intel/lib/libnetcdf.a(posixio.o)
 .note.GNU-stack
                0x0000000000000000        0x0 /apps/intel/composer_xe_2013_sp1.2.144/compiler/lib/intel64/libifcoremt.a(for_close.o)
 .note.GNU-stack
                0x0000000000000000        0x0 /apps/intel/composer_xe_2013_sp1.2.144/compiler/lib/intel64/libifcoremt.a(for_close_proc.o)
 .note.GNU-stack
                0x0000000000000000        0x0 /apps/intel/composer_xe_2013_sp1.2.144/compiler/lib/intel64/libifcoremt.a(for_contig_array.o)
 .note.GNU-stack
                0x0000000000000000        0x0 /apps/intel/composer_xe_2013_sp1.2.144/compiler/lib/intel64/libifcoremt.a(for_desc_item.o)
 .note.GNU-stack
                0x0000000000000000        0x0 /apps/intel/composer_xe_2013_sp1.2.144/compiler/lib/intel64/libifcoremt.a(for_diags_intel.o)
 .note.GNU-stack
                0x0000000000000000        0x0 /apps/intel/composer_xe_2013_sp1.2.144/compiler/lib/intel64/libifcoremt.a(for_exit_handler.o)
 .note.GNU-stack
                0x0000000000000000        0x0 /apps/intel/composer_xe_2013_sp1.2.144/compiler/lib/intel64/libifcoremt.a(for_init.o)
 .note.GNU-stack
                0x0000000000000000        0x0 /apps/intel/composer_xe_2013_sp1.2.144/compiler/lib/intel64/libifcoremt.a(for_inquire.o)
 .note.GNU-stack
                0x0000000000000000        0x0 /apps/intel/composer_xe_2013_sp1.2.144/compiler/lib/intel64/libifcoremt.a(for_io_util.o)
 .note.GNU-stack
                0x0000000000000000        0x0 /apps/intel/composer_xe_2013_sp1.2.144/compiler/lib/intel64/libifcoremt.a(for_lub_mgt.o)
 .note.GNU-stack
                0x0000000000000000        0x0 /apps/intel/composer_xe_2013_sp1.2.144/compiler/lib/intel64/libifcoremt.a(for_need_lf.o)
 .note.GNU-stack
                0x0000000000000000        0x0 /apps/intel/composer_xe_2013_sp1.2.144/compiler/lib/intel64/libifcoremt.a(for_open.o)
 .note.GNU-stack
                0x0000000000000000        0x0 /apps/intel/composer_xe_2013_sp1.2.144/compiler/lib/intel64/libifcoremt.a(for_preconnected_units_init.o)
 .note.GNU-stack
                0x0000000000000000        0x0 /apps/intel/composer_xe_2013_sp1.2.144/compiler/lib/intel64/libifcoremt.a(for_put.o)
 .note.GNU-stack
                0x0000000000000000        0x0 /apps/intel/composer_xe_2013_sp1.2.144/compiler/lib/intel64/libifcoremt.a(for_reentrancy.o)
 .note.GNU-stack
                0x0000000000000000        0x0 /apps/intel/composer_xe_2013_sp1.2.144/compiler/lib/intel64/libifcoremt.a(for_rint_fmt.o)
 .note.GNU-stack
                0x0000000000000000        0x0 /apps/intel/composer_xe_2013_sp1.2.144/compiler/lib/intel64/libifcoremt.a(for_rseq_nml.o)
 .note.GNU-stack
                0x0000000000000000        0x0 /apps/intel/composer_xe_2013_sp1.2.144/compiler/lib/intel64/libifcoremt.a(for_stop.o)
 .note.GNU-stack
                0x0000000000000000        0x0 /apps/intel/composer_xe_2013_sp1.2.144/compiler/lib/intel64/libifcoremt.a(for_vm.o)
 .note.GNU-stack
                0x0000000000000000        0x0 /apps/intel/composer_xe_2013_sp1.2.144/compiler/lib/intel64/libifcoremt.a(for_wint_fmt.o)
 .note.GNU-stack
                0x0000000000000000        0x0 /apps/intel/composer_xe_2013_sp1.2.144/compiler/lib/intel64/libifcoremt.a(for_wseq.o)
 .note.GNU-stack
                0x0000000000000000        0x0 /apps/intel/composer_xe_2013_sp1.2.144/compiler/lib/intel64/libifcoremt.a(for_wseq_fmt.o)
 .note.GNU-stack
                0x0000000000000000        0x0 /apps/intel/composer_xe_2013_sp1.2.144/compiler/lib/intel64/libifcoremt.a(for_wseq_lis.o)
 .note.GNU-stack
                0x0000000000000000        0x0 /apps/intel/composer_xe_2013_sp1.2.144/compiler/lib/intel64/libifcoremt.a(for_wseq_nml.o)
 .note.GNU-stack
                0x0000000000000000        0x0 /apps/intel/composer_xe_2013_sp1.2.144/compiler/lib/intel64/libifcoremt.a(for_90_adjust.o)
 .note.GNU-stack
                0x0000000000000000        0x0 /apps/intel/composer_xe_2013_sp1.2.144/compiler/lib/intel64/libifcoremt.a(for_90_trim.o)
 .note.GNU-stack
                0x0000000000000000        0x0 /apps/intel/composer_xe_2013_sp1.2.144/compiler/lib/intel64/libifcoremt.a(for_f90str.o)
 .note.GNU-stack
                0x0000000000000000        0x0 /apps/intel/composer_xe_2013_sp1.2.144/compiler/lib/intel64/libifcoremt.a(tbk_traceback.o)
 .note.GNU-stack
                0x0000000000000000        0x0 /apps/intel/composer_xe_2013_sp1.2.144/compiler/lib/intel64/libifcoremt.a(for_aio.o)
 .note.GNU-stack
                0x0000000000000000        0x0 /apps/intel/composer_xe_2013_sp1.2.144/compiler/lib/intel64/libifcoremt.a(for_open_proc.o)
 .note.GNU-stack
                0x0000000000000000        0x0 /apps/intel/composer_xe_2013_sp1.2.144/compiler/lib/intel64/libifcoremt.a(for_aio_wrap.o)
 .note.GNU-stack
                0x0000000000000000        0x0 /apps/intel/composer_xe_2013_sp1.2.144/compiler/lib/intel64/libifcoremt.a(cvt_vax_f.o)
 .note.GNU-stack
                0x0000000000000000        0x0 /apps/intel/composer_xe_2013_sp1.2.144/compiler/lib/intel64/libifcoremt.a(cvt_vax_d.o)
 .note.GNU-stack
                0x0000000000000000        0x0 /apps/intel/composer_xe_2013_sp1.2.144/compiler/lib/intel64/libifcoremt.a(cvt_vax_g.o)
 .note.GNU-stack
                0x0000000000000000        0x0 /apps/intel/composer_xe_2013_sp1.2.144/compiler/lib/intel64/libifcoremt.a(cvt_cray.o)
 .note.GNU-stack
                0x0000000000000000        0x0 /apps/intel/composer_xe_2013_sp1.2.144/compiler/lib/intel64/libifcoremt.a(cvt_ibm_short.o)
 .note.GNU-stack
                0x0000000000000000        0x0 /apps/intel/composer_xe_2013_sp1.2.144/compiler/lib/intel64/libifcoremt.a(cvt_ibm_long.o)
 .note.GNU-stack
                0x0000000000000000        0x0 /apps/intel/composer_xe_2013_sp1.2.144/compiler/lib/intel64/libifcoremt.a(cvt_ieee_double.o)
 .note.GNU-stack
                0x0000000000000000        0x0 /apps/intel/composer_xe_2013_sp1.2.144/compiler/lib/intel64/libifcoremt.a(cvt_ieee_single.o)
 .note.GNU-stack
                0x0000000000000000        0x0 /apps/intel/composer_xe_2013_sp1.2.144/compiler/lib/intel64/libifcoremt.a(for_common_inquire.o)
 .note.GNU-stack
                0x0000000000000000        0x0 /apps/intel/composer_xe_2013_sp1.2.144/compiler/lib/intel64/libifcoremt.a(for_default_io_sizes_env_init.o)
 .note.GNU-stack
                0x0000000000000000        0x0 /apps/intel/composer_xe_2013_sp1.2.144/compiler/lib/intel64/libifcoremt.a(for_exit.o)
 .note.GNU-stack
                0x0000000000000000        0x0 /apps/intel/composer_xe_2013_sp1.2.144/compiler/lib/intel64/libifcoremt.a(for_fmt_comp.o)
 .note.GNU-stack
                0x0000000000000000        0x0 /apps/intel/composer_xe_2013_sp1.2.144/compiler/lib/intel64/libifcoremt.a(for_fmt_val.o)
 .note.GNU-stack
                0x0000000000000000        0x0 /apps/intel/composer_xe_2013_sp1.2.144/compiler/lib/intel64/libifcoremt.a(for_get.o)
 .note.GNU-stack
                0x0000000000000000        0x0 /apps/intel/composer_xe_2013_sp1.2.144/compiler/lib/intel64/libifcoremt.a(for_intrp_fmt.o)
 .note.GNU-stack
                0x0000000000000000        0x0 /apps/intel/composer_xe_2013_sp1.2.144/compiler/lib/intel64/libifcoremt.a(for_ldir_wfs.o)
 .note.GNU-stack
                0x0000000000000000        0x0 /apps/intel/composer_xe_2013_sp1.2.144/compiler/lib/intel64/libifcoremt.a(for_rint_lis.o)
 .note.GNU-stack
                0x0000000000000000        0x0 /apps/intel/composer_xe_2013_sp1.2.144/compiler/lib/intel64/libifcoremt.a(for_rseq_lis.o)
 .note.GNU-stack
                0x0000000000000000        0x0 /apps/intel/composer_xe_2013_sp1.2.144/compiler/lib/intel64/libifcoremt.a(cvt__globals.o)
 .note.GNU-stack
                0x0000000000000000        0x0 /apps/intel/composer_xe_2013_sp1.2.144/compiler/lib/intel64/libifcoremt.a(cvt_int_to_text.o)
 .note.GNU-stack
                0x0000000000000000        0x0 /apps/intel/composer_xe_2013_sp1.2.144/compiler/lib/intel64/libifcoremt.a(cvt_data_to_text.o)
 .note.GNU-stack
                0x0000000000000000        0x0 /apps/intel/composer_xe_2013_sp1.2.144/compiler/lib/intel64/libifcoremt.a(cvt_log_to_text.o)
 .note.GNU-stack
                0x0000000000000000        0x0 /apps/intel/composer_xe_2013_sp1.2.144/compiler/lib/intel64/libifcoremt.a(cvt_text_to_int.o)
 .note.GNU-stack
                0x0000000000000000        0x0 /apps/intel/composer_xe_2013_sp1.2.144/compiler/lib/intel64/libifcoremt.a(cvt_text_to_data.o)
 .note.GNU-stack
                0x0000000000000000        0x0 /apps/intel/composer_xe_2013_sp1.2.144/compiler/lib/intel64/libifcoremt.a(cvt_text_to_log.o)
 .note.GNU-stack
                0x0000000000000000        0x0 /apps/intel/composer_xe_2013_sp1.2.144/compiler/lib/intel64/libifcoremt.a(cvt_cvtas_t.o)
 .note.GNU-stack
                0x0000000000000000        0x0 /apps/intel/composer_xe_2013_sp1.2.144/compiler/lib/intel64/libifcoremt.a(cvt_cvtas_s.o)
 .note.GNU-stack
                0x0000000000000000        0x0 /apps/intel/composer_xe_2013_sp1.2.144/compiler/lib/intel64/libifcoremt.a(cvt_cvtas_x.o)
 .note.GNU-stack
                0x0000000000000000        0x0 /apps/intel/composer_xe_2013_sp1.2.144/compiler/lib/intel64/libifcoremt.a(cvtas_a_to_s.o)
 .note.GNU-stack
                0x0000000000000000        0x0 /apps/intel/composer_xe_2013_sp1.2.144/compiler/lib/intel64/libifcoremt.a(cvtas_a_to_t.o)
 .note.GNU-stack
                0x0000000000000000        0x0 /apps/intel/composer_xe_2013_sp1.2.144/compiler/lib/intel64/libifcoremt.a(cvtas_s_to_a.o)
 .note.GNU-stack
                0x0000000000000000        0x0 /apps/intel/composer_xe_2013_sp1.2.144/compiler/lib/intel64/libifcoremt.a(cvtas_t_to_a.o)
 .note.GNU-stack
                0x0000000000000000        0x0 /apps/intel/composer_xe_2013_sp1.2.144/compiler/lib/intel64/libifcoremt.a(cvtas_nan_s.o)
 .note.GNU-stack
                0x0000000000000000        0x0 /apps/intel/composer_xe_2013_sp1.2.144/compiler/lib/intel64/libifcoremt.a(cvtas_nan_t.o)
 .note.GNU-stack
                0x0000000000000000        0x0 /apps/intel/composer_xe_2013_sp1.2.144/compiler/lib/intel64/libifcoremt.a(cvtas_a_to_x.o)
 .note.GNU-stack
                0x0000000000000000        0x0 /apps/intel/composer_xe_2013_sp1.2.144/compiler/lib/intel64/libifcoremt.a(cvtas_x_to_a.o)
 .note.GNU-stack
                0x0000000000000000        0x0 /apps/intel/composer_xe_2013_sp1.2.144/compiler/lib/intel64/libifcoremt.a(cvtas_nan_x.o)
 .note.GNU-stack
                0x0000000000000000        0x0 /apps/intel/composer_xe_2013_sp1.2.144/compiler/lib/intel64/libifcoremt.a(cvtas_globals.o)
 .note.GNU-stack
                0x0000000000000000        0x0 /apps/intel/composer_xe_2013_sp1.2.144/compiler/lib/intel64/libifcoremt.a(cvtas_pow_ten_53.o)
 .note.GNU-stack
                0x0000000000000000        0x0 /apps/intel/composer_xe_2013_sp1.2.144/compiler/lib/intel64/libifcoremt.a(cvtas_pow_ten_64.o)
 .note.GNU-stack
                0x0000000000000000        0x0 /apps/intel/composer_xe_2013_sp1.2.144/compiler/lib/intel64/libifcoremt.a(cvtas_pow_ten_128.o)
 .note.GNU-stack
                0x0000000000000000        0x0 /apps/intel/composer_xe_2013_sp1.2.144/compiler/lib/intel64/libimf.a(asinf_stub.o)
 .note.GNU-stack
                0x0000000000000000        0x0 /apps/intel/composer_xe_2013_sp1.2.144/compiler/lib/intel64/libimf.a(asin.o)
 .note.GNU-stack
                0x0000000000000000        0x0 /apps/intel/composer_xe_2013_sp1.2.144/compiler/lib/intel64/libimf.a(fetestexcept.o)
 .note.GNU-stack
                0x0000000000000000        0x0 /apps/intel/composer_xe_2013_sp1.2.144/compiler/lib/intel64/libimf.a(f__powi4i4.o)
 .note.GNU-stack
                0x0000000000000000        0x0 /apps/intel/composer_xe_2013_sp1.2.144/compiler/lib/intel64/libimf.a(f__powr4i4.o)
 .note.GNU-stack
                0x0000000000000000        0x0 /apps/intel/composer_xe_2013_sp1.2.144/compiler/lib/intel64/libimf.a(libm_error.o)
 .note.GNU-stack
                0x0000000000000000        0x0 /apps/intel/composer_xe_2013_sp1.2.144/compiler/lib/intel64/libimf.a(log10f_stub.o)
 .note.GNU-stack
                0x0000000000000000        0x0 /apps/intel/composer_xe_2013_sp1.2.144/compiler/lib/intel64/libimf.a(log10_stub.o)
 .note.GNU-stack
                0x0000000000000000        0x0 /apps/intel/composer_xe_2013_sp1.2.144/compiler/lib/intel64/libimf.a(logf_stub.o)
 .note.GNU-stack
                0x0000000000000000        0x0 /apps/intel/composer_xe_2013_sp1.2.144/compiler/lib/intel64/libimf.a(matherrf.o)
 .note.GNU-stack
                0x0000000000000000        0x0 /apps/intel/composer_xe_2013_sp1.2.144/compiler/lib/intel64/libimf.a(matherrl.o)
 .note.GNU-stack
                0x0000000000000000        0x0 /apps/intel/composer_xe_2013_sp1.2.144/compiler/lib/intel64/libimf.a(matherr.o)
 .note.GNU-stack
                0x0000000000000000        0x0 /apps/intel/composer_xe_2013_sp1.2.144/compiler/lib/intel64/libimf.a(asinf_ct.o)
 .note.GNU-stack
                0x0000000000000000        0x0 /apps/intel/composer_xe_2013_sp1.2.144/compiler/lib/intel64/libimf.a(asinf_gen.o)
 .note.GNU-stack
                0x0000000000000000        0x0 /apps/intel/composer_xe_2013_sp1.2.144/compiler/lib/intel64/libimf.a(log10_ct.o)
 .note.GNU-stack
                0x0000000000000000        0x0 /apps/intel/composer_xe_2013_sp1.2.144/compiler/lib/intel64/libimf.a(log10f_ct.o)
 .note.GNU-stack
                0x0000000000000000        0x0 /apps/intel/composer_xe_2013_sp1.2.144/compiler/lib/intel64/libimf.a(log10f_gen.o)
 .note.GNU-stack
                0x0000000000000000        0x0 /apps/intel/composer_xe_2013_sp1.2.144/compiler/lib/intel64/libimf.a(log10_gen.o)
 .note.GNU-stack
                0x0000000000000000        0x0 /apps/intel/composer_xe_2013_sp1.2.144/compiler/lib/intel64/libimf.a(logf_ct.o)
 .note.GNU-stack
                0x0000000000000000        0x0 /apps/intel/composer_xe_2013_sp1.2.144/compiler/lib/intel64/libimf.a(logf_gen.o)
 .note.GNU-stack
                0x0000000000000000        0x0 /apps/intel/composer_xe_2013_sp1.2.144/compiler/lib/intel64/libimf.a(logf_table.o)
 .note.GNU-stack
                0x0000000000000000        0x0 /apps/intel/composer_xe_2013_sp1.2.144/compiler/lib/intel64/libimf.a(rcp_table.o)
 .note.GNU-stack
                0x0000000000000000        0x0 /apps/intel/composer_xe_2013_sp1.2.144/compiler/lib/intel64/libsvml.a(svml_dcos2_la_iface.o)
 .note.GNU-stack
                0x0000000000000000        0x0 /apps/intel/composer_xe_2013_sp1.2.144/compiler/lib/intel64/libsvml.a(svml_dcos2_y8la.o)
 .note.GNU-stack
                0x0000000000000000        0x0 /apps/intel/composer_xe_2013_sp1.2.144/compiler/lib/intel64/libsvml.a(svml_sroundf4_la_iface.o)
 .note.GNU-stack
                0x0000000000000000        0x0 /apps/intel/composer_xe_2013_sp1.2.144/compiler/lib/intel64/libsvml.a(svml_sroundf4_y8la.o)
 .note.GNU-stack
                0x0000000000000000        0x0 /apps/intel/composer_xe_2013_sp1.2.144/compiler/lib/intel64/libsvml.a(svml_d_feature_flag_.o)
 .note.GNU-stack
                0x0000000000000000        0x0 /apps/intel/composer_xe_2013_sp1.2.144/compiler/lib/intel64/libsvml.a(svml_dcos2_e7la.o)
 .note.GNU-stack
                0x0000000000000000        0x0 /apps/intel/composer_xe_2013_sp1.2.144/compiler/lib/intel64/libsvml.a(svml_dcos2_exla.o)
 .note.GNU-stack
                0x0000000000000000        0x0 /apps/intel/composer_xe_2013_sp1.2.144/compiler/lib/intel64/libsvml.a(svml_dcos2_h9la.o)
 .note.GNU-stack
                0x0000000000000000        0x0 /apps/intel/composer_xe_2013_sp1.2.144/compiler/lib/intel64/libsvml.a(svml_s_round_data_exla.o)
 .note.GNU-stack
                0x0000000000000000        0x0 /apps/intel/composer_xe_2013_sp1.2.144/compiler/lib/intel64/libsvml.a(svml_sroundf4_e7la.o)
 .note.GNU-stack
                0x0000000000000000        0x0 /apps/intel/composer_xe_2013_sp1.2.144/compiler/lib/intel64/libsvml.a(svml_sroundf4_exla.o)
 .note.GNU-stack
                0x0000000000000000        0x0 /apps/intel/composer_xe_2013_sp1.2.144/compiler/lib/intel64/libsvml.a(svml_sroundf4_h9la.o)
 .note.GNU-stack
                0x0000000000000000        0x0 /apps/intel/composer_xe_2013_sp1.2.144/compiler/lib/intel64/libirc.a(q2ints.o)
 .note.GNU-stack
                0x0000000000000000        0x0 /apps/intel/composer_xe_2013_sp1.2.144/compiler/lib/intel64/libirc.a(tbk_display.o)
 .note.GNU-stack
                0x0000000000000000        0x0 /apps/intel/composer_xe_2013_sp1.2.144/compiler/lib/intel64/libirc.a(tbk_backtrace.o)
 .note.GNU-stack
                0x0000000000000000        0x0 /apps/intel/composer_xe_2013_sp1.2.144/compiler/lib/intel64/libirc.a(cpu_feature_disp.o)
 .note.GNU-stack
                0x0000000000000000        0x0 /apps/intel/composer_xe_2013_sp1.2.144/compiler/lib/intel64/libirc.a(ia32_memcmp.o)
 .note.GNU-stack
                0x0000000000000000        0x0 /apps/intel/composer_xe_2013_sp1.2.144/compiler/lib/intel64/libirc.a(fastmemcpy.o)
 .note.GNU-stack
                0x0000000000000000        0x0 /apps/intel/composer_xe_2013_sp1.2.144/compiler/lib/intel64/libirc.a(fastmemmove.o)
 .note.GNU-stack
                0x0000000000000000        0x0 /apps/intel/composer_xe_2013_sp1.2.144/compiler/lib/intel64/libirc.a(fastmemset.o)
 .note.GNU-stack
                0x0000000000000000        0x0 /apps/intel/composer_xe_2013_sp1.2.144/compiler/lib/intel64/libirc.a(new_proc_init.o)
 .note.GNU-stack
                0x0000000000000000        0x0 /apps/intel/composer_xe_2013_sp1.2.144/compiler/lib/intel64/libirc.a(sse2_strcspn.o)
 .note.GNU-stack
                0x0000000000000000        0x0 /apps/intel/composer_xe_2013_sp1.2.144/compiler/lib/intel64/libirc.a(sse2_strcpy.o)
 .note.GNU-stack
                0x0000000000000000        0x0 /apps/intel/composer_xe_2013_sp1.2.144/compiler/lib/intel64/libirc.a(sse2_strncpy.o)
 .note.GNU-stack
                0x0000000000000000        0x0 /apps/intel/composer_xe_2013_sp1.2.144/compiler/lib/intel64/libirc.a(sse2_strlen.o)
 .note.GNU-stack
                0x0000000000000000        0x0 /apps/intel/composer_xe_2013_sp1.2.144/compiler/lib/intel64/libirc.a(sse2_strchr.o)
 .note.GNU-stack
                0x0000000000000000        0x0 /apps/intel/composer_xe_2013_sp1.2.144/compiler/lib/intel64/libirc.a(sse2_strncmp.o)
 .note.GNU-stack
                0x0000000000000000        0x0 /apps/intel/composer_xe_2013_sp1.2.144/compiler/lib/intel64/libirc.a(sse2_strcat.o)
 .note.GNU-stack
                0x0000000000000000        0x0 /apps/intel/composer_xe_2013_sp1.2.144/compiler/lib/intel64/libirc.a(sse2_strncat.o)
 .note.GNU-stack
                0x0000000000000000        0x0 /apps/intel/composer_xe_2013_sp1.2.144/compiler/lib/intel64/libirc.a(fast_memcpy_pp.o)
 .note.GNU-stack
                0x0000000000000000        0x0 /apps/intel/composer_xe_2013_sp1.2.144/compiler/lib/intel64/libirc.a(fast_memset_pp.o)
 .note.GNU-stack
                0x0000000000000000        0x0 /apps/intel/composer_xe_2013_sp1.2.144/compiler/lib/intel64/libirc.a(intel_ssse3_memcpy.o)
 .note.GNU-stack
                0x0000000000000000        0x0 /apps/intel/composer_xe_2013_sp1.2.144/compiler/lib/intel64/libirc.a(intel_ssse3_rep_memcpy.o)
 .note.GNU-stack
                0x0000000000000000        0x0 /apps/intel/composer_xe_2013_sp1.2.144/compiler/lib/intel64/libirc.a(intel_ssse3_memmove.o)
 .note.GNU-stack
                0x0000000000000000        0x0 /apps/intel/composer_xe_2013_sp1.2.144/compiler/lib/intel64/libirc.a(intel_ssse3_rep_memmove.o)
 .note.GNU-stack
                0x0000000000000000        0x0 /apps/intel/composer_xe_2013_sp1.2.144/compiler/lib/intel64/libirc.a(irc_msg_support.o)
 .note.GNU-stack
                0x0000000000000000        0x0 /apps/intel/composer_xe_2013_sp1.2.144/compiler/lib/intel64/libirc.a(fast_mem_ops.o)
 .note.GNU-stack
                0x0000000000000000        0x0 /apps/intel/composer_xe_2013_sp1.2.144/compiler/lib/intel64/libirc.a(proc_init_utils.o)
 .note.GNU-stack
                0x0000000000000000        0x0 /usr/lib64/libc_nonshared.a(elf-init.oS)
 .note.GNU-stack
                0x0000000000000000        0x0 /usr/lib/gcc/x86_64-redhat-linux/4.8.5/crtend.o
 .note.GNU-stack
                0x0000000000000000        0x0 /usr/lib/gcc/x86_64-redhat-linux/4.8.5/../../../../lib64/crtn.o

Memory Configuration

Name             Origin             Length             Attributes
*default*        0x0000000000000000 0xffffffffffffffff

Linker script and memory map

LOAD /usr/lib/gcc/x86_64-redhat-linux/4.8.5/../../../../lib64/crt1.o
LOAD /usr/lib/gcc/x86_64-redhat-linux/4.8.5/../../../../lib64/crti.o
LOAD /usr/lib/gcc/x86_64-redhat-linux/4.8.5/crtbegin.o
LOAD /apps/intel/composer_xe_2013_sp1.2.144/compiler/lib/intel64/for_main.o
LOAD kinds.o
LOAD constants.o
LOAD namelist_def.o
LOAD variable_interface.o
LOAD gfs_nems_interface.o
LOAD fv3_interface.o
LOAD calc_increment_interface.o
LOAD /tmp/ifort3qcMiK.o
LOAD /scratch3/NCEPDEV/nwprod/lib/nemsio/v2.2.1/libnemsio_v2.2.1.a
LOAD /scratch3/NCEPDEV/nwprod/lib/bacio/v2.0.1/libbacio_v2.0.1_4.a
LOAD /scratch3/NCEPDEV/nwprod/lib/w3nco/v2.0.6/libw3nco_v2.0.6_4.a
LOAD /apps/netcdf/3.6.3-intel/lib/libnetcdf.a
LOAD /apps/intel/impi/5.1.2.150/intel64/lib/libmpifort.so
LOAD /apps/intel/impi/5.1.2.150/intel64/lib/release_mt/libmpi.so
LOAD /apps/intel/impi/5.1.2.150/intel64/lib/libmpigi.a
LOAD /usr/lib/gcc/x86_64-redhat-linux/4.8.5/../../../../lib64/libdl.so
LOAD /usr/lib/gcc/x86_64-redhat-linux/4.8.5/../../../../lib64/librt.so
LOAD /usr/lib/gcc/x86_64-redhat-linux/4.8.5/../../../../lib64/libpthread.so
START GROUP
LOAD /lib64/libpthread.so.0
LOAD /usr/lib64/libpthread_nonshared.a
END GROUP
LOAD /apps/intel/composer_xe_2013_sp1.2.144/compiler/lib/intel64/libifport.a
LOAD /apps/intel/composer_xe_2013_sp1.2.144/compiler/lib/intel64/libifcoremt.a
LOAD /apps/intel/composer_xe_2013_sp1.2.144/compiler/lib/intel64/libimf.a
LOAD /apps/intel/composer_xe_2013_sp1.2.144/compiler/lib/intel64/libsvml.a
LOAD /usr/lib/gcc/x86_64-redhat-linux/4.8.5/../../../../lib64/libm.so
LOAD /apps/intel/composer_xe_2013_sp1.2.144/compiler/lib/intel64/libipgo.a
LOAD /apps/intel/composer_xe_2013_sp1.2.144/compiler/lib/intel64/libiomp5.so
LOAD /apps/intel/composer_xe_2013_sp1.2.144/compiler/lib/intel64/libirc.a
LOAD /usr/lib/gcc/x86_64-redhat-linux/4.8.5/../../../../lib64/libpthread.so
START GROUP
LOAD /lib64/libpthread.so.0
LOAD /usr/lib64/libpthread_nonshared.a
END GROUP
LOAD /apps/intel/composer_xe_2013_sp1.2.144/compiler/lib/intel64/libsvml.a
LOAD /usr/lib/gcc/x86_64-redhat-linux/4.8.5/../../../../lib64/libc.so
START GROUP
LOAD /lib64/libc.so.6
LOAD /usr/lib64/libc_nonshared.a
LOAD /lib64/ld-linux-x86-64.so.2
END GROUP
LOAD /usr/lib/gcc/x86_64-redhat-linux/4.8.5//libgcc.a
LOAD /usr/lib/gcc/x86_64-redhat-linux/4.8.5//libgcc_s.so
LOAD /apps/intel/composer_xe_2013_sp1.2.144/compiler/lib/intel64/libirc_s.a
LOAD /usr/lib/gcc/x86_64-redhat-linux/4.8.5/../../../../lib64/libdl.so
LOAD /usr/lib/gcc/x86_64-redhat-linux/4.8.5/../../../../lib64/libc.so
START GROUP
LOAD /lib64/libc.so.6
LOAD /usr/lib64/libc_nonshared.a
LOAD /lib64/ld-linux-x86-64.so.2
END GROUP
LOAD /usr/lib/gcc/x86_64-redhat-linux/4.8.5/crtend.o
LOAD /usr/lib/gcc/x86_64-redhat-linux/4.8.5/../../../../lib64/crtn.o
                [!provide]                        PROVIDE (__executable_start, 0x400000)
                0x0000000000400238                . = (0x400000 + SIZEOF_HEADERS)

.interp         0x0000000000400238       0x1c
 *(.interp)
 .interp        0x0000000000400238       0x1c /usr/lib/gcc/x86_64-redhat-linux/4.8.5/../../../../lib64/crt1.o

.note.ABI-tag   0x0000000000400254       0x20
 .note.ABI-tag  0x0000000000400254       0x20 /usr/lib/gcc/x86_64-redhat-linux/4.8.5/../../../../lib64/crt1.o

.note.gnu.build-id
                0x0000000000400274       0x24
 *(.note.gnu.build-id)
 .note.gnu.build-id
                0x0000000000400274       0x24 /usr/lib/gcc/x86_64-redhat-linux/4.8.5/../../../../lib64/crt1.o

.hash           0x0000000000400298      0x450
 *(.hash)
 .hash          0x0000000000400298      0x450 /usr/lib/gcc/x86_64-redhat-linux/4.8.5/../../../../lib64/crt1.o

.gnu.hash
 *(.gnu.hash)

.dynsym         0x00000000004006e8      0xd68
 *(.dynsym)
 .dynsym        0x00000000004006e8      0xd68 /usr/lib/gcc/x86_64-redhat-linux/4.8.5/../../../../lib64/crt1.o

.dynstr         0x0000000000401450      0x6b1
 *(.dynstr)
 .dynstr        0x0000000000401450      0x6b1 /usr/lib/gcc/x86_64-redhat-linux/4.8.5/../../../../lib64/crt1.o

.gnu.version    0x0000000000401b02      0x11e
 *(.gnu.version)
 .gnu.version   0x0000000000401b02      0x11e /usr/lib/gcc/x86_64-redhat-linux/4.8.5/../../../../lib64/crt1.o

.gnu.version_d  0x0000000000401c20        0x0
 *(.gnu.version_d)
 .gnu.version_d
                0x0000000000401c20        0x0 /usr/lib/gcc/x86_64-redhat-linux/4.8.5/../../../../lib64/crt1.o

.gnu.version_r  0x0000000000401c20       0xd0
 *(.gnu.version_r)
 .gnu.version_r
                0x0000000000401c20       0xd0 /usr/lib/gcc/x86_64-redhat-linux/4.8.5/../../../../lib64/crt1.o

.rela.dyn       0x0000000000401cf0       0xc0
 *(.rela.init)
 *(.rela.text .rela.text.* .rela.gnu.linkonce.t.*)
 .rela.text     0x0000000000401cf0        0x0 /usr/lib/gcc/x86_64-redhat-linux/4.8.5/../../../../lib64/crt1.o
 .rela.text.ssse3
                0x0000000000401cf0        0x0 /usr/lib/gcc/x86_64-redhat-linux/4.8.5/../../../../lib64/crt1.o
 *(.rela.fini)
 *(.rela.rodata .rela.rodata.* .rela.gnu.linkonce.r.*)
 .rela.rodata   0x0000000000401cf0        0x0 /usr/lib/gcc/x86_64-redhat-linux/4.8.5/../../../../lib64/crt1.o
 *(.rela.data .rela.data.* .rela.gnu.linkonce.d.*)
 .rela.data     0x0000000000401cf0        0x0 /usr/lib/gcc/x86_64-redhat-linux/4.8.5/../../../../lib64/crt1.o
 .rela.data.rel.ro
                0x0000000000401cf0        0x0 /usr/lib/gcc/x86_64-redhat-linux/4.8.5/../../../../lib64/crt1.o
 *(.rela.tdata .rela.tdata.* .rela.gnu.linkonce.td.*)
 *(.rela.tbss .rela.tbss.* .rela.gnu.linkonce.tb.*)
 *(.rela.ctors)
 *(.rela.dtors)
 *(.rela.got)
 .rela.got      0x0000000000401cf0       0x78 /usr/lib/gcc/x86_64-redhat-linux/4.8.5/../../../../lib64/crt1.o
 *(.rela.bss .rela.bss.* .rela.gnu.linkonce.b.*)
 .rela.bss      0x0000000000401d68       0x48 /usr/lib/gcc/x86_64-redhat-linux/4.8.5/../../../../lib64/crt1.o
 *(.rela.ldata .rela.ldata.* .rela.gnu.linkonce.l.*)
 *(.rela.lbss .rela.lbss.* .rela.gnu.linkonce.lb.*)
 *(.rela.lrodata .rela.lrodata.* .rela.gnu.linkonce.lr.*)
 *(.rela.ifunc)

.rela.plt       0x0000000000401db0      0xa98
 *(.rela.plt)
 .rela.plt      0x0000000000401db0      0xa98 /usr/lib/gcc/x86_64-redhat-linux/4.8.5/../../../../lib64/crt1.o
                [!provide]                        PROVIDE (__rela_iplt_start, .)
 *(.rela.iplt)
 .rela.iplt     0x0000000000402848        0x0 /usr/lib/gcc/x86_64-redhat-linux/4.8.5/../../../../lib64/crt1.o
                [!provide]                        PROVIDE (__rela_iplt_end, .)

.init           0x0000000000402848       0x1a
 *(SORT(.init))
 .init          0x0000000000402848       0x15 /usr/lib/gcc/x86_64-redhat-linux/4.8.5/../../../../lib64/crti.o
                0x0000000000402848                _init
 .init          0x000000000040285d        0x5 /usr/lib/gcc/x86_64-redhat-linux/4.8.5/../../../../lib64/crtn.o

.plt            0x0000000000402870      0x720
 *(.plt)
 .plt           0x0000000000402870      0x720 /usr/lib/gcc/x86_64-redhat-linux/4.8.5/../../../../lib64/crt1.o
                0x0000000000402880                fileno@@GLIBC_2.2.5
                0x0000000000402890                pthread_getspecific@@GLIBC_2.2.5
                0x00000000004028a0                printf@@GLIBC_2.2.5
                0x00000000004028b0                _Unwind_GetRegionStart@@GCC_3.0
                0x00000000004028c0                memset@@GLIBC_2.2.5
                0x00000000004028d0                ftell@@GLIBC_2.2.5
                0x00000000004028e0                snprintf@@GLIBC_2.2.5
                0x00000000004028f0                posix_memalign@@GLIBC_2.2.5
                0x0000000000402900                close@@GLIBC_2.2.5
                0x0000000000402910                abort@@GLIBC_2.2.5
                0x0000000000402920                pthread_setspecific@@GLIBC_2.2.5
                0x0000000000402930                ttyname@@GLIBC_2.2.5
                0x0000000000402940                memchr@@GLIBC_2.2.5
                0x0000000000402950                strncat@@GLIBC_2.2.5
                0x0000000000402960                isatty@@GLIBC_2.2.5
                0x0000000000402970                __kmpc_end@@VERSION
                0x0000000000402990                puts@@GLIBC_2.2.5
                0x00000000004029a0                uname@@GLIBC_2.2.5
                0x00000000004029b0                fseek@@GLIBC_2.2.5
                0x00000000004029c0                realloc
                0x00000000004029d0                exit@@GLIBC_2.2.5
                0x00000000004029e0                __assert_fail@@GLIBC_2.2.5
                0x00000000004029f0                mpi_abort_
                0x0000000000402a00                read@@GLIBC_2.2.5
                0x0000000000402a10                strncmp@@GLIBC_2.2.5
                0x0000000000402a20                malloc@@GLIBC_2.2.5
                0x0000000000402a30                fopen@@GLIBC_2.2.5
                0x0000000000402a40                __libc_start_main@@GLIBC_2.2.5
                0x0000000000402a50                system@@GLIBC_2.2.5
                0x0000000000402a60                unlink@@GLIBC_2.2.5
                0x0000000000402a70                siglongjmp@@GLIBC_2.2.5
                0x0000000000402a80                catgets@@GLIBC_2.2.5
                0x0000000000402a90                mpi_comm_rank_
                0x0000000000402aa0                sysconf@@GLIBC_2.2.5
                0x0000000000402ab0                getpid@@GLIBC_2.2.5
                0x0000000000402ac0                catclose@@GLIBC_2.2.5
                0x0000000000402ad0                pthread_mutex_init@@GLIBC_2.2.5
                0x0000000000402ae0                fgets@@GLIBC_2.2.5
                0x0000000000402af0                __fxstat64@@GLIBC_2.2.5
                0x0000000000402b00                freopen64@@GLIBC_2.2.5
                0x0000000000402b10                strlen@@GLIBC_2.2.5
                0x0000000000402b20                vsprintf@@GLIBC_2.2.5
                0x0000000000402b30                opendir@@GLIBC_2.2.5
                0x0000000000402b40                __xpg_basename@@GLIBC_2.2.5
                0x0000000000402b50                mkstemp64@@GLIBC_2.2.5
                0x0000000000402b60                __ctype_b_loc@@GLIBC_2.3
                0x0000000000402b70                sprintf@@GLIBC_2.2.5
                0x0000000000402b80                strrchr@@GLIBC_2.2.5
                0x0000000000402b90                _Unwind_GetIP@@GCC_3.0
                0x0000000000402ba0                atol@@GLIBC_2.2.5
                0x0000000000402bb0                _Unwind_Backtrace@@GCC_3.3
                0x0000000000402bc0                sscanf@@GLIBC_2.2.5
                0x0000000000402bd0                pthread_self@@GLIBC_2.2.5
                0x0000000000402be0                kill@@GLIBC_2.2.5
                0x0000000000402bf0                strerror@@GLIBC_2.2.5
                0x0000000000402c00                open64@@GLIBC_2.2.5
                0x0000000000402c10                strstr@@GLIBC_2.2.5
                0x0000000000402c20                sigprocmask@@GLIBC_2.2.5
                0x0000000000402c30                sigaction@@GLIBC_2.2.5
                0x0000000000402c40                strcat@@GLIBC_2.2.5
                0x0000000000402c50                fputs@@GLIBC_2.2.5
                0x0000000000402c60                __kmpc_begin@@VERSION
                0x0000000000402c70                lseek@@GLIBC_2.2.5
                0x0000000000402c80                _Unwind_ForcedUnwind@@GCC_3.0
                0x0000000000402c90                ftruncate64@@GLIBC_2.2.5
                0x0000000000402ca0                readlink@@GLIBC_2.2.5
                0x0000000000402cb0                mpi_barrier_
                0x0000000000402cc0                raise@@GLIBC_2.2.5
                0x0000000000402cd0                signal@@GLIBC_2.2.5
                0x0000000000402ce0                memmove@@GLIBC_2.2.5
                0x0000000000402cf0                strchr@@GLIBC_2.2.5
                0x0000000000402d00                vsnprintf@@GLIBC_2.2.5
                0x0000000000402d10                fread@@GLIBC_2.2.5
                0x0000000000402d20                setenv@@GLIBC_2.2.5
                0x0000000000402d30                __fxstat@@GLIBC_2.2.5
                0x0000000000402d40                catopen@@GLIBC_2.2.5
                0x0000000000402d50                getenv@@GLIBC_2.2.5
                0x0000000000402d60                __errno_location@@GLIBC_2.2.5
                0x0000000000402d70                strcmp@@GLIBC_2.2.5
                0x0000000000402d80                getcwd@@GLIBC_2.2.5
                0x0000000000402d90                strcpy@@GLIBC_2.2.5
                0x0000000000402da0                nanosleep@@GLIBC_2.2.5
                0x0000000000402db0                dladdr@@GLIBC_2.2.5
                0x0000000000402dc0                __ctype_tolower_loc@@GLIBC_2.3
                0x0000000000402dd0                memcmp@@GLIBC_2.2.5
                0x0000000000402de0                calloc@@GLIBC_2.2.5
                0x0000000000402df0                feof@@GLIBC_2.2.5
                0x0000000000402e00                fclose@@GLIBC_2.2.5
                0x0000000000402e10                strncpy@@GLIBC_2.2.5
                0x0000000000402e20                __xstat64@@GLIBC_2.2.5
                0x0000000000402e30                lseek64@@GLIBC_2.2.5
                0x0000000000402e40                dlsym@@GLIBC_2.2.5
                0x0000000000402e50                mpi_init_
                0x0000000000402e60                closedir@@GLIBC_2.2.5
                0x0000000000402e70                strcspn@@GLIBC_2.2.5
                0x0000000000402e80                access@@GLIBC_2.2.5
                0x0000000000402e90                sigemptyset@@GLIBC_2.2.5
                0x0000000000402ea0                fopen64@@GLIBC_2.2.5
                0x0000000000402eb0                mpi_finalize_
                0x0000000000402ec0                free
                0x0000000000402ed0                pthread_mutex_lock@@GLIBC_2.2.5
                0x0000000000402ee0                mpi_comm_size_
                0x0000000000402ef0                perror@@GLIBC_2.2.5
                0x0000000000402f00                __sigsetjmp@@GLIBC_2.2.5
                0x0000000000402f10                pthread_key_create@@GLIBC_2.2.5
                0x0000000000402f20                fprintf@@GLIBC_2.2.5
                0x0000000000402f30                pthread_mutex_destroy@@GLIBC_2.2.5
                0x0000000000402f40                write@@GLIBC_2.2.5
                0x0000000000402f50                pthread_mutex_unlock@@GLIBC_2.2.5
                0x0000000000402f60                memcpy@@GLIBC_2.14
                0x0000000000402f70                fcntl@@GLIBC_2.2.5
                0x0000000000402f80                open@@GLIBC_2.2.5
 *(.iplt)
 .iplt          0x0000000000402f90        0x0 /usr/lib/gcc/x86_64-redhat-linux/4.8.5/../../../../lib64/crt1.o

.plt.bnd
 *(.plt.bnd)

.text           0x0000000000402f90   0x207f02
 *(.text.unlikely .text.*_unlikely .text.unlikely.*)
 *(.text.exit .text.exit.*)
 *(.text.startup .text.startup.*)
 *(.text.hot .text.hot.*)
 *(.text .stub .text.* .gnu.linkonce.t.*)
 .text          0x0000000000402f90       0x2a /usr/lib/gcc/x86_64-redhat-linux/4.8.5/../../../../lib64/crt1.o
                0x0000000000402f90                _start
 .text          0x0000000000402fba        0x0 /usr/lib/gcc/x86_64-redhat-linux/4.8.5/../../../../lib64/crti.o
 *fill*         0x0000000000402fba        0x6 
 .text          0x0000000000402fc0       0xbd /usr/lib/gcc/x86_64-redhat-linux/4.8.5/crtbegin.o
 *fill*         0x000000000040307d        0x3 
 .text          0x0000000000403080       0x60 /apps/intel/composer_xe_2013_sp1.2.144/compiler/lib/intel64/for_main.o
                0x0000000000403080                main
 .text          0x00000000004030e0       0x10 kinds.o
                0x00000000004030e0                kinds._
 .text          0x00000000004030f0      0x330 constants.o
                0x00000000004030f0                constants._
                0x0000000000403100                constants_mp_init_constants_
                0x00000000004033a0                constants_mp_init_constants_derived_
 .text          0x0000000000403420      0x590 namelist_def.o
                0x0000000000403420                namelist_def._
                0x0000000000403430                namelist_def_mp_read_namelist_
                0x00000000004037d0                namelist_def_mp_write_namelist_
 .text          0x00000000004039b0      0xe90 variable_interface.o
                0x00000000004039b0                variable_interface._
                0x00000000004039c0                variable_interface_mp_variable_clip_
                0x0000000000403b60                variable_interface_mp_variable_lookup_
 .text          0x0000000000404840     0x3f00 gfs_nems_interface.o
                0x0000000000404840                gfs_nems_interface._
                0x0000000000404850                gfs_nems_interface_mp_gfs_nems_finalize_
                0x0000000000404870                gfs_nems_interface_mp_gfs_nems_variable_exist_
                0x0000000000404990                gfs_nems_interface_mp_gfs_nems_vcoord_
                0x0000000000406180                gfs_nems_interface_mp_gfs_nems_flip_xlat_axis_
                0x00000000004065b0                gfs_nems_interface_mp_gfs_nems_read_
                0x0000000000406980                gfs_nems_interface_mp_gfs_nems_write_
                0x0000000000406d50                gfs_nems_interface_mp_gfs_grid_cleanup_
                0x0000000000406df0                gfs_nems_interface_mp_gfs_grid_initialize_
                0x0000000000407640                gfs_nems_interface_mp_gfs_nems_initialize_
 .text          0x0000000000408740    0x13610 fv3_interface.o
                0x0000000000408740                fv3_interface._
                0x0000000000408750                fv3_interface_mp_fv3_calc_increment_
                0x0000000000408d70                fv3_interface_mp_fv3_increment_compute_
                0x000000000040da80                fv3_interface_mp_fv3_increment_define_analysis_
                0x00000000004153c0                fv3_interface_mp_fv3_increment_write_
                0x0000000000418a90                fv3_interface_mp_netcdf_check_
                0x0000000000418d50                fv3_interface_mp_fv3_increment_cleanup_
                0x00000000004199e0                fv3_interface_mp_fv3_increment_initialize_
 .text          0x000000000041bd50       0x20 calc_increment_interface.o
                0x000000000041bd50                calc_increment_interface._
                0x000000000041bd60                calc_increment_interface_mp_calc_increment_
 .text          0x000000000041bd70      0xbd0 /tmp/ifort3qcMiK.o
                0x000000000041bd70                MAIN__
 .text          0x000000000041c940    0x49a10 /scratch3/NCEPDEV/nwprod/lib/nemsio/v2.2.1/libnemsio_v2.2.1.a(nemsio_openclose.o)
                0x000000000041c940                nemsio_openclose._
                0x000000000041c950                nemsio_openclose_mp_nemsio_finalize_
                0x000000000041c960                nemsio_openclose_mp_nemsio_open_
                0x000000000041d320                nemsio_openclose_mp_nemsio_rcreate_
                0x0000000000423c20                nemsio_openclose_mp_nemsio_close_
                0x0000000000423d30                nemsio_openclose_mp_nemsio_axmeta_
                0x0000000000424ed0                nemsio_openclose_mp_nemsio_getlu_
                0x0000000000424f90                nemsio_openclose_mp_nemsio_almeta_
                0x0000000000426310                nemsio_openclose_mp_nemsio_alextrameta_
                0x0000000000427b00                nemsio_openclose_mp_nemsio_wcreate_
                0x0000000000434900                nemsio_openclose_mp_nemsio_chkgfary_
                0x0000000000435e50                nemsio_openclose_mp_nemsio_setfhead_
                0x0000000000438c20                nemsio_openclose_mp_nemsio_setfheadvari_
                0x0000000000439410                nemsio_openclose_mp_nemsio_setfheadaryi_
                0x000000000043acc0                nemsio_openclose_mp_nemsio_setfilehead_
                0x000000000043be60                nemsio_openclose_mp_nemsio_getfilehead_
                0x0000000000440190                nemsio_openclose_mp_nemsio_getfheadvarr_
                0x00000000004404c0                nemsio_openclose_mp_nemsio_getfheadvarl_
                0x0000000000440670                nemsio_openclose_mp_nemsio_getfheadvarc_
                0x00000000004409f0                nemsio_openclose_mp_nemsio_getfheadvarr8_
                0x0000000000440ba0                nemsio_openclose_mp_nemsio_getfheadaryi_
                0x00000000004411f0                nemsio_openclose_mp_nemsio_getfheadaryr_
                0x0000000000441830                nemsio_openclose_mp_nemsio_getfheadaryl_
                0x0000000000441b80                nemsio_openclose_mp_nemsio_getfheadaryc_
                0x0000000000442000                nemsio_openclose_mp_nemsio_getfheadaryr8_
                0x00000000004423c0                nemsio_openclose_mp_nemsio_getrechead_
                0x0000000000442590                nemsio_openclose_mp_nemsio_clslu_
                0x00000000004425c0                nemsio_openclose_mp_nemsio_setrqst_
                0x0000000000443b60                nemsio_openclose_mp_nemsio_getfheadvari_
                0x0000000000444440                nemsio_openclose_mp_nemsio_splat8_
                0x00000000004453b0                nemsio_openclose_mp_nemsio_makglgds_
                0x0000000000446b60                nemsio_openclose_mp_nemsio_makglpds_
                0x0000000000446f90                nemsio_openclose_mp_nemsio_searchrecv_
                0x0000000000447500                nemsio_openclose_mp_nemsio_grbtbl_search_
                0x00000000004479b0                nemsio_openclose_mp_nemsio_almeta1_
                0x0000000000447cf0                nemsio_openclose_mp_nemsio_almeta2_
                0x00000000004483e0                nemsio_openclose_mp_nemsio_almeta3_
                0x0000000000448780                nemsio_openclose_mp_nemsio_almeta4_
                0x0000000000448ce0                nemsio_openclose_mp_nemsio_splat4_
                0x0000000000449b30                nemsio_openclose_mp_lowercase_
                0x0000000000449c30                nemsio_openclose_mp_nemsio_setgrbtbl_
                0x0000000000459b30                nemsio_openclose_mp_equal_str_nocase_
                0x0000000000459b90                nemsio_openclose_mp_nemsio_stop_
                0x0000000000459bb0                nemsio_openclose_mp_nemsio_gfinit_
                0x0000000000466260                nemsio_openclose_mp_nemsio_init_
 .text          0x0000000000466350     0xb030 /scratch3/NCEPDEV/nwprod/lib/nemsio/v2.2.1/libnemsio_v2.2.1.a(nemsio_read.o)
                0x0000000000466350                nemsio_read._
                0x0000000000466360                nemsio_read_mp_nemsio_readrec4_
                0x00000000004671b0                nemsio_read_mp_nemsio_readrecbin4d4_
                0x00000000004676f0                nemsio_read_mp_nemsio_getgfile_
                0x0000000000467cb0                nemsio_read_mp_nemsio_readrec8_
                0x0000000000468b40                nemsio_read_mp_nemsio_readrecbin8d8_
                0x00000000004691f0                nemsio_read_mp_nemsio_readrecgrb8_
                0x0000000000469970                nemsio_read_mp_nemsio_readrecv4_
                0x000000000046a840                nemsio_read_mp_nemsio_readrecvbin4d4_
                0x000000000046ada0                nemsio_read_mp_nemsio_readrecv8_
                0x000000000046bcc0                nemsio_read_mp_nemsio_readrecvbin8d8_
                0x000000000046c3a0                nemsio_read_mp_nemsio_readrecvgrb8_
                0x000000000046cae0                nemsio_read_mp_nemsio_readrec4w34_
                0x000000000046d960                nemsio_read_mp_nemsio_readrecgrb4w34_
                0x000000000046e020                nemsio_read_mp_nemsio_readrec8w34_
                0x000000000046eee0                nemsio_read_mp_nemsio_readrecv4w34_
                0x000000000046fe00                nemsio_read_mp_nemsio_readrecvgrb4w34_
                0x0000000000470490                nemsio_read_mp_nemsio_readrecv8w34_
 .text          0x0000000000471380     0xf160 /scratch3/NCEPDEV/nwprod/lib/nemsio/v2.2.1/libnemsio_v2.2.1.a(nemsio_write.o)
                0x0000000000471380                nemsio_write._
                0x0000000000471390                nemsio_write_mp_nemsio_getgfile_
                0x00000000004716a0                nemsio_write_mp_nemsio_writerec4_
                0x0000000000472ab0                nemsio_write_mp_nemsio_writerecbin4d4_
                0x0000000000473000                nemsio_write_mp_nemsio_writerecbin8d8_
                0x0000000000473690                nemsio_write_mp_nemsio_writerec8_
                0x0000000000474b10                nemsio_write_mp_nemsio_writerecv4_
                0x0000000000475ee0                nemsio_write_mp_nemsio_writerecvbin4d4_
                0x0000000000476460                nemsio_write_mp_nemsio_writerecvbin8d8_
                0x0000000000476a90                nemsio_write_mp_nemsio_writerecv8_
                0x0000000000477f60                nemsio_write_mp_nemsio_writerec4w34_
                0x0000000000479160                nemsio_write_mp_nemsio_writerec8w34_
                0x0000000000479ec0                nemsio_write_mp_nemsio_writerecv4w34_
                0x000000000047b130                nemsio_write_mp_nemsio_writerecv8w34_
                0x000000000047bf40                nemsio_write_mp_nemsio_writerecgrb4w34_
                0x000000000047ca30                nemsio_write_mp_nemsio_writerecgrb4_
                0x000000000047d780                nemsio_write_mp_nemsio_writerecgrb8_
                0x000000000047e240                nemsio_write_mp_nemsio_writerecvgrb4w34_
                0x000000000047ed40                nemsio_write_mp_nemsio_writerecvgrb4_
                0x000000000047fa10                nemsio_write_mp_nemsio_writerecvgrb8_
 .text          0x00000000004804e0     0x18b0 /scratch3/NCEPDEV/nwprod/lib/bacio/v2.0.1/libbacio_v2.0.1_4.a(baciof.o)
                0x00000000004804e0                bacio_module._
                0x00000000004804f0                baseto_
                0x0000000000480510                baopen_
                0x0000000000480580                baopenr_
                0x00000000004805f0                baopenw_
                0x0000000000480660                baopenwt_
                0x00000000004806d0                baopenwa_
                0x0000000000480740                baclose_
                0x00000000004807e0                baread_
                0x0000000000481080                bareadl_
                0x00000000004819c0                bawrite_
                0x0000000000481b50                bawritel_
                0x0000000000481c30                wryte_
                0x0000000000481d00                wrytel_
 .text          0x0000000000481d90      0xfa0 /scratch3/NCEPDEV/nwprod/lib/bacio/v2.0.1/libbacio_v2.0.1_4.a(bafrio.o)
                0x0000000000481d90                bafrindex_
                0x0000000000481fe0                bafrindexl_
                0x0000000000482230                bafrread_
                0x0000000000482570                bafrreadl_
                0x0000000000482820                bafrwrite_
                0x0000000000482b00                bafrwritel_
 .text          0x0000000000482d30      0x210 /scratch3/NCEPDEV/nwprod/lib/bacio/v2.0.1/libbacio_v2.0.1_4.a(byteswap.o)
                0x0000000000482d30                byteswap_
 .text          0x0000000000482f40      0x2c0 /scratch3/NCEPDEV/nwprod/lib/bacio/v2.0.1/libbacio_v2.0.1_4.a(chk_endianc.o)
                0x0000000000482f40                chk_endianc_
                0x00000000004830a0                findendian_
 .text          0x0000000000483200      0xee0 /scratch3/NCEPDEV/nwprod/lib/bacio/v2.0.1/libbacio_v2.0.1_4.a(bacio.o)
                0x0000000000483200                bacio_
                0x0000000000483590                banio_
                0x0000000000483960                baciol_
                0x0000000000483d00                baniol_
 .text          0x00000000004840e0      0x4e0 /scratch3/NCEPDEV/nwprod/lib/w3nco/v2.0.6/libw3nco_v2.0.6_4.a(getgbm.o)
                0x00000000004840e0                getgbm_
 .text          0x00000000004845c0      0x260 /scratch3/NCEPDEV/nwprod/lib/w3nco/v2.0.6/libw3nco_v2.0.6_4.a(getgi.o)
                0x00000000004845c0                getgi_
 .text          0x0000000000484820      0x190 /scratch3/NCEPDEV/nwprod/lib/w3nco/v2.0.6/libw3nco_v2.0.6_4.a(getgir.o)
                0x0000000000484820                getgir_
 .text          0x00000000004849b0      0xfc0 /scratch3/NCEPDEV/nwprod/lib/w3nco/v2.0.6/libw3nco_v2.0.6_4.a(ixgb.o)
                0x00000000004849b0                ixgb_
 .text          0x0000000000485970       0x50 /scratch3/NCEPDEV/nwprod/lib/w3nco/v2.0.6/libw3nco_v2.0.6_4.a(lengds.o)
                0x0000000000485970                lengds_
 .text          0x00000000004859c0      0x540 /scratch3/NCEPDEV/nwprod/lib/w3nco/v2.0.6/libw3nco_v2.0.6_4.a(putgben.o)
                0x00000000004859c0                putgben_
 .text          0x0000000000485f00      0x410 /scratch3/NCEPDEV/nwprod/lib/w3nco/v2.0.6/libw3nco_v2.0.6_4.a(r63w72.o)
                0x0000000000485f00                r63w72_
 .text          0x0000000000486310       0x30 /scratch3/NCEPDEV/nwprod/lib/w3nco/v2.0.6/libw3nco_v2.0.6_4.a(sbytec.o)
                0x0000000000486310                sbytec_
 .text          0x0000000000486340      0x290 /scratch3/NCEPDEV/nwprod/lib/w3nco/v2.0.6/libw3nco_v2.0.6_4.a(sbytesc.o)
                0x0000000000486340                sbytesc_
 .text          0x00000000004865d0      0x2a0 /scratch3/NCEPDEV/nwprod/lib/w3nco/v2.0.6/libw3nco_v2.0.6_4.a(skgb.o)
                0x00000000004865d0                skgb_
 .text          0x0000000000486870      0x300 /scratch3/NCEPDEV/nwprod/lib/w3nco/v2.0.6/libw3nco_v2.0.6_4.a(w3fi68.o)
                0x0000000000486870                w3fi68_
 .text          0x0000000000486b70     0x1a40 /scratch3/NCEPDEV/nwprod/lib/w3nco/v2.0.6/libw3nco_v2.0.6_4.a(w3fi72.o)
                0x0000000000486b70                w3fi72_
 .text          0x00000000004885b0      0x240 /scratch3/NCEPDEV/nwprod/lib/w3nco/v2.0.6/libw3nco_v2.0.6_4.a(w3fi73.o)
                0x00000000004885b0                w3fi73_
 .text          0x00000000004887f0     0x1320 /scratch3/NCEPDEV/nwprod/lib/w3nco/v2.0.6/libw3nco_v2.0.6_4.a(w3fi74.o)
                0x00000000004887f0                w3fi74_
 .text          0x0000000000489b10     0x44a0 /scratch3/NCEPDEV/nwprod/lib/w3nco/v2.0.6/libw3nco_v2.0.6_4.a(w3fi75.o)
                0x0000000000489b10                w3fi75_
                0x000000000048b820                fi7501_
                0x000000000048cb40                fi7503_
                0x000000000048d850                fi7505_
                0x000000000048d880                fi7513_
                0x000000000048dd20                fi7502_
                0x000000000048dd60                fi7517_
                0x000000000048de00                fi7518_
                0x000000000048dea0                fi7516_
 .text          0x000000000048dfb0      0x270 /scratch3/NCEPDEV/nwprod/lib/w3nco/v2.0.6/libw3nco_v2.0.6_4.a(w3fi76.o)
                0x000000000048dfb0                w3fi76_
 .text          0x000000000048e220      0x3f0 /scratch3/NCEPDEV/nwprod/lib/w3nco/v2.0.6/libw3nco_v2.0.6_4.a(w3fi82.o)
                0x000000000048e220                w3fi82_
 .text          0x000000000048e610       0x10 /scratch3/NCEPDEV/nwprod/lib/w3nco/v2.0.6/libw3nco_v2.0.6_4.a(mova2i.o)
                0x000000000048e610                mova2i_
 .text          0x000000000048e620       0x30 /scratch3/NCEPDEV/nwprod/lib/w3nco/v2.0.6/libw3nco_v2.0.6_4.a(gbytec.o)
                0x000000000048e620                gbytec_
 .text          0x000000000048e650      0x200 /scratch3/NCEPDEV/nwprod/lib/w3nco/v2.0.6/libw3nco_v2.0.6_4.a(gbytesc.o)
                0x000000000048e650                gbytesc_
 .text          0x000000000048e850      0x730 /scratch3/NCEPDEV/nwprod/lib/w3nco/v2.0.6/libw3nco_v2.0.6_4.a(getbit.o)
                0x000000000048e850                getbit_
 .text          0x000000000048ef80      0x150 /scratch3/NCEPDEV/nwprod/lib/w3nco/v2.0.6/libw3nco_v2.0.6_4.a(getgb1r.o)
                0x000000000048ef80                getgb1r_
 .text          0x000000000048f0d0     0x1460 /scratch3/NCEPDEV/nwprod/lib/w3nco/v2.0.6/libw3nco_v2.0.6_4.a(getgb1s.o)
                0x000000000048f0d0                getgb1s_
 .text          0x0000000000490530      0x2d0 /scratch3/NCEPDEV/nwprod/lib/w3nco/v2.0.6/libw3nco_v2.0.6_4.a(pdsens.o)
                0x0000000000490530                pdsens_
 .text          0x0000000000490800      0x290 /scratch3/NCEPDEV/nwprod/lib/w3nco/v2.0.6/libw3nco_v2.0.6_4.a(pdseup.o)
                0x0000000000490800                pdseup_
 .text          0x0000000000490a90       0x10 /scratch3/NCEPDEV/nwprod/lib/w3nco/v2.0.6/libw3nco_v2.0.6_4.a(w3fi01.o)
                0x0000000000490a90                w3fi01_
 .text          0x0000000000490aa0      0x390 /scratch3/NCEPDEV/nwprod/lib/w3nco/v2.0.6/libw3nco_v2.0.6_4.a(w3fi58.o)
                0x0000000000490aa0                w3fi58_
 .text          0x0000000000490e30      0x4b0 /scratch3/NCEPDEV/nwprod/lib/w3nco/v2.0.6/libw3nco_v2.0.6_4.a(w3fi59.o)
                0x0000000000490e30                w3fi59_
 .text          0x00000000004912e0     0xb390 /scratch3/NCEPDEV/nwprod/lib/w3nco/v2.0.6/libw3nco_v2.0.6_4.a(w3fi63.o)
                0x00000000004912e0                w3fi63_
                0x00000000004951a0                fi637_
                0x00000000004970b0                fi635_
                0x00000000004981a0                fi634_
                0x000000000049a860                fi633_
                0x000000000049b460                fi632_
                0x000000000049b910                fi631_
                0x000000000049bbc0                fi634x_
                0x000000000049bce0                fi636_
 .text          0x000000000049c670     0x2c80 /scratch3/NCEPDEV/nwprod/lib/w3nco/v2.0.6/libw3nco_v2.0.6_4.a(w3fi71.o)
                0x000000000049c670                w3fi71_
 .text          0x000000000049f2f0      0x5d0 /scratch3/NCEPDEV/nwprod/lib/w3nco/v2.0.6/libw3nco_v2.0.6_4.a(w3fi83.o)
                0x000000000049f2f0                w3fi83_
 .text          0x000000000049f8c0    0x8a418 /apps/netcdf/3.6.3-intel/lib/libnetcdf.a(netcdf.o)
                0x000000000049f8c0                netcdf._
                0x000000000049f8c6                netcdf_mp_nf90_inq_libvers_
                0x000000000049f910                netcdf_mp_nf90_strerror_
                0x000000000049f965                netcdf_mp_nf90_inq_base_pe_
                0x000000000049f99b                netcdf_mp_nf90_set_base_pe_
                0x000000000049f9d1                netcdf_mp_nf90_create_
                0x000000000049fb88                netcdf_mp_nf90_create_mp_
                0x000000000049fc29                netcdf_mp_nf90_open_
                0x000000000049fd01                netcdf_mp_nf90_open_mp_
                0x000000000049fd93                netcdf_mp_nf90_set_fill_
                0x000000000049fdd4                netcdf_mp_nf90_redef_
                0x000000000049fdff                netcdf_mp_nf90_enddef_
                0x00000000004a0088                netcdf_mp_nf90_sync_
                0x00000000004a00b3                netcdf_mp_nf90_abort_
                0x00000000004a00de                netcdf_mp_nf90_close_
                0x00000000004a0109                netcdf_mp_nf90_delete_
                0x00000000004a0157                netcdf_mp_nf90_inquire_
                0x00000000004a02b3                netcdf_mp_nf90_def_dim_
                0x00000000004a0332                netcdf_mp_nf90_inq_dimid_
                0x00000000004a039e                netcdf_mp_nf90_rename_dim_
                0x00000000004a040a                netcdf_mp_nf90_inquire_dimension_
                0x00000000004a0548                netcdf_mp_nf90_copy_att_
                0x00000000004a05da                netcdf_mp_nf90_rename_att_
                0x00000000004a0687                netcdf_mp_nf90_del_att_
                0x00000000004a06f3                netcdf_mp_nf90_inq_attname_
                0x00000000004a0772                netcdf_mp_nf90_inquire_attribute_
                0x00000000004a08da                netcdf_mp_nf90_put_att_text_
                0x00000000004a0a57                netcdf_mp_nf90_get_att_text_
                0x00000000004a0b51                netcdf_mp_nf90_put_att_onebyteint_
                0x00000000004a0e1e                netcdf_mp_nf90_put_att_one_onebyteint_
                0x00000000004a0ec9                netcdf_mp_nf90_get_att_onebyteint_
                0x00000000004a11a5                netcdf_mp_nf90_get_att_one_onebyteint_
                0x00000000004a1233                netcdf_mp_nf90_put_att_twobyteint_
                0x00000000004a150d                netcdf_mp_nf90_put_att_one_twobyteint_
                0x00000000004a15b9                netcdf_mp_nf90_get_att_twobyteint_
                0x00000000004a18a5                netcdf_mp_nf90_get_att_one_twobyteint_
                0x00000000004a1934                netcdf_mp_nf90_put_att_fourbyteint_
                0x00000000004a1b99                netcdf_mp_nf90_put_att_one_fourbyteint_
                0x00000000004a1c97                netcdf_mp_nf90_get_att_fourbyteint_
                0x00000000004a1eff                netcdf_mp_nf90_get_att_one_fourbyteint_
                0x00000000004a1f8c                netcdf_mp_nf90_put_att_eightbyteint_
                0x00000000004a21f1                netcdf_mp_nf90_put_att_one_eightbyteint_
                0x00000000004a229b                netcdf_mp_nf90_get_att_eightbyteint_
                0x00000000004a2507                netcdf_mp_nf90_get_att_one_eightbyteint_
                0x00000000004a2598                netcdf_mp_nf90_put_att_fourbytereal_
                0x00000000004a2874                netcdf_mp_nf90_put_att_one_fourbytereal_
                0x00000000004a2922                netcdf_mp_nf90_get_att_fourbytereal_
                0x00000000004a2c12                netcdf_mp_nf90_get_att_one_fourbytereal_
                0x00000000004a2ca3                netcdf_mp_nf90_put_att_eightbytereal_
                0x00000000004a2f7f                netcdf_mp_nf90_put_att_one_eightbytereal_
                0x00000000004a302d                netcdf_mp_nf90_get_att_eightbytereal_
                0x00000000004a331d                netcdf_mp_nf90_get_att_one_eightbytereal_
                0x00000000004a33ae                netcdf_mp_nf90_def_var_scalar_
                0x00000000004a344a                netcdf_mp_nf90_def_var_onedim_
                0x00000000004a34fa                netcdf_mp_nf90_def_var_manydims_
                0x00000000004a37d5                netcdf_mp_nf90_inq_varid_
                0x00000000004a3841                netcdf_mp_nf90_inquire_variable_
                0x00000000004a3bf0                netcdf_mp_nf90_rename_var_
                0x00000000004a3c5c                netcdf_mp_nf90_put_var_text_
                0x00000000004a442b                netcdf_mp_nf90_get_var_text_
                0x00000000004a4b3f                netcdf_mp_nf90_put_var_1d_text_
                0x00000000004a57d6                netcdf_mp_nf90_put_var_2d_text_
                0x00000000004a66e0                netcdf_mp_nf90_put_var_3d_text_
                0x00000000004a76ef                netcdf_mp_nf90_put_var_4d_text_
                0x00000000004a882b                netcdf_mp_nf90_put_var_5d_text_
                0x00000000004a9a6c                netcdf_mp_nf90_put_var_6d_text_
                0x00000000004aadda                netcdf_mp_nf90_put_var_7d_text_
                0x00000000004ac24d                netcdf_mp_nf90_get_var_1d_text_
                0x00000000004acee4                netcdf_mp_nf90_get_var_2d_text_
                0x00000000004addee                netcdf_mp_nf90_get_var_3d_text_
                0x00000000004aedfd                netcdf_mp_nf90_get_var_4d_text_
                0x00000000004aff39                netcdf_mp_nf90_get_var_5d_text_
                0x00000000004b117a                netcdf_mp_nf90_get_var_6d_text_
                0x00000000004b24e8                netcdf_mp_nf90_get_var_7d_text_
                0x00000000004b395b                netcdf_mp_nf90_put_var_onebyteint_
                0x00000000004b3b3c                netcdf_mp_nf90_put_var_twobyteint_
                0x00000000004b3d1d                netcdf_mp_nf90_put_var_fourbyteint_
                0x00000000004b3f07                netcdf_mp_nf90_put_var_eightbyteint_
                0x00000000004b40f1                netcdf_mp_nf90_put_var_fourbytereal_
                0x00000000004b42d2                netcdf_mp_nf90_put_var_eightbytereal_
                0x00000000004b44b3                netcdf_mp_nf90_get_var_onebyteint_
                0x00000000004b4694                netcdf_mp_nf90_get_var_twobyteint_
                0x00000000004b4875                netcdf_mp_nf90_get_var_fourbyteint_
                0x00000000004b4a5f                netcdf_mp_nf90_get_var_eightbyteint_
                0x00000000004b4c4d                netcdf_mp_nf90_get_var_fourbytereal_
                0x00000000004b4e2e                netcdf_mp_nf90_get_var_eightbytereal_
                0x00000000004b500f                netcdf_mp_nf90_put_var_1d_onebyteint_
                0x00000000004b62bd                netcdf_mp_nf90_put_var_2d_onebyteint_
                0x00000000004b7912                netcdf_mp_nf90_put_var_3d_onebyteint_
                0x00000000004b9218                netcdf_mp_nf90_put_var_4d_onebyteint_
                0x00000000004ba320                netcdf_mp_nf90_put_var_5d_onebyteint_
                0x00000000004bb4e7                netcdf_mp_nf90_put_var_6d_onebyteint_
                0x00000000004bc777                netcdf_mp_nf90_put_var_7d_onebyteint_
                0x00000000004bdac6                netcdf_mp_nf90_put_var_1d_twobyteint_
                0x00000000004bed95                netcdf_mp_nf90_put_var_2d_twobyteint_
                0x00000000004c0456                netcdf_mp_nf90_put_var_3d_twobyteint_
                0x00000000004c1dad                netcdf_mp_nf90_put_var_4d_twobyteint_
                0x00000000004c2eb5                netcdf_mp_nf90_put_var_5d_twobyteint_
                0x00000000004c407c                netcdf_mp_nf90_put_var_6d_twobyteint_
                0x00000000004c530c                netcdf_mp_nf90_put_var_7d_twobyteint_
                0x00000000004c665b                netcdf_mp_nf90_put_var_1d_fourbyteint_
                0x00000000004c77e0                netcdf_mp_nf90_put_var_2d_fourbyteint_
                0x00000000004c8cb5                netcdf_mp_nf90_put_var_3d_fourbyteint_
                0x00000000004ca4ec                netcdf_mp_nf90_put_var_4d_fourbyteint_
                0x00000000004cc083                netcdf_mp_nf90_put_var_5d_fourbyteint_
                0x00000000004cdf82                netcdf_mp_nf90_put_var_6d_fourbyteint_
                0x00000000004d01e4                netcdf_mp_nf90_put_var_7d_fourbyteint_
                0x00000000004d27b7                netcdf_mp_nf90_put_var_1d_eightbyteint_
                0x00000000004d393c                netcdf_mp_nf90_put_var_2d_eightbyteint_
                0x00000000004d4e11                netcdf_mp_nf90_put_var_3d_eightbyteint_
                0x00000000004d6648                netcdf_mp_nf90_put_var_4d_eightbyteint_
                0x00000000004d81df                netcdf_mp_nf90_put_var_5d_eightbyteint_
                0x00000000004da0de                netcdf_mp_nf90_put_var_6d_eightbyteint_
                0x00000000004dc340                netcdf_mp_nf90_put_var_7d_eightbyteint_
                0x00000000004de913                netcdf_mp_nf90_put_var_1d_fourbytereal_
                0x00000000004dfbe8                netcdf_mp_nf90_put_var_2d_fourbytereal_
                0x00000000004e12af                netcdf_mp_nf90_put_var_3d_fourbytereal_
                0x00000000004e2c0c                netcdf_mp_nf90_put_var_4d_fourbytereal_
                0x00000000004e3d14                netcdf_mp_nf90_put_var_5d_fourbytereal_
                0x00000000004e4edb                netcdf_mp_nf90_put_var_6d_fourbytereal_
                0x00000000004e616b                netcdf_mp_nf90_put_var_7d_fourbytereal_
                0x00000000004e74ba                netcdf_mp_nf90_put_var_1d_eightbytereal_
                0x00000000004e878f                netcdf_mp_nf90_put_var_2d_eightbytereal_
                0x00000000004e9e56                netcdf_mp_nf90_put_var_3d_eightbytereal_
                0x00000000004eb7b3                netcdf_mp_nf90_put_var_4d_eightbytereal_
                0x00000000004ec8bb                netcdf_mp_nf90_put_var_5d_eightbytereal_
                0x00000000004eda82                netcdf_mp_nf90_put_var_6d_eightbytereal_
                0x00000000004eed12                netcdf_mp_nf90_put_var_7d_eightbytereal_
                0x00000000004f0061                netcdf_mp_nf90_get_var_1d_onebyteint_
                0x00000000004f148c                netcdf_mp_nf90_get_var_2d_onebyteint_
                0x00000000004f2dae                netcdf_mp_nf90_get_var_3d_onebyteint_
                0x00000000004f4af2                netcdf_mp_nf90_get_var_4d_onebyteint_
                0x00000000004f5bfa                netcdf_mp_nf90_get_var_5d_onebyteint_
                0x00000000004f6dc1                netcdf_mp_nf90_get_var_6d_onebyteint_
                0x00000000004f8051                netcdf_mp_nf90_get_var_7d_onebyteint_
                0x00000000004f93a0                netcdf_mp_nf90_get_var_1d_twobyteint_
                0x00000000004fa7fb                netcdf_mp_nf90_get_var_2d_twobyteint_
                0x00000000004fc19b                netcdf_mp_nf90_get_var_3d_twobyteint_
                0x00000000004fdf45                netcdf_mp_nf90_get_var_4d_twobyteint_
                0x00000000004ff04d                netcdf_mp_nf90_get_var_5d_twobyteint_
                0x0000000000500214                netcdf_mp_nf90_get_var_6d_twobyteint_
                0x00000000005014a4                netcdf_mp_nf90_get_var_7d_twobyteint_
                0x00000000005027f3                netcdf_mp_nf90_get_var_1d_fourbyteint_
                0x000000000050393e                netcdf_mp_nf90_get_var_2d_fourbyteint_
                0x0000000000504c92                netcdf_mp_nf90_get_var_3d_fourbyteint_
                0x0000000000506205                netcdf_mp_nf90_get_var_4d_fourbyteint_
                0x00000000005079a4                netcdf_mp_nf90_get_var_5d_fourbyteint_
                0x000000000050936a                netcdf_mp_nf90_get_var_6d_fourbyteint_
                0x000000000050af7a                netcdf_mp_nf90_get_var_7d_fourbyteint_
                0x000000000050cddd                netcdf_mp_nf90_get_var_1d_eightbyteint_
                0x000000000050df30                netcdf_mp_nf90_get_var_2d_eightbyteint_
                0x000000000050f288                netcdf_mp_nf90_get_var_3d_eightbyteint_
                0x00000000005107ff                netcdf_mp_nf90_get_var_4d_eightbyteint_
                0x0000000000511fa2                netcdf_mp_nf90_get_var_5d_eightbyteint_
                0x000000000051396c                netcdf_mp_nf90_get_var_6d_eightbyteint_
                0x0000000000515580                netcdf_mp_nf90_get_var_7d_eightbyteint_
                0x00000000005173e7                netcdf_mp_nf90_get_var_1d_fourbytereal_
                0x000000000051884e                netcdf_mp_nf90_get_var_2d_fourbytereal_
                0x000000000051a1fa                netcdf_mp_nf90_get_var_3d_fourbytereal_
                0x000000000051bfb0                netcdf_mp_nf90_get_var_4d_fourbytereal_
                0x000000000051d0b8                netcdf_mp_nf90_get_var_5d_fourbytereal_
                0x000000000051e27f                netcdf_mp_nf90_get_var_6d_fourbytereal_
                0x000000000051f50f                netcdf_mp_nf90_get_var_7d_fourbytereal_
                0x000000000052085e                netcdf_mp_nf90_get_var_1d_eightbytereal_
                0x0000000000521cc5                netcdf_mp_nf90_get_var_2d_eightbytereal_
                0x0000000000523671                netcdf_mp_nf90_get_var_3d_eightbytereal_
                0x0000000000525427                netcdf_mp_nf90_get_var_4d_eightbytereal_
                0x000000000052652f                netcdf_mp_nf90_get_var_5d_eightbytereal_
                0x00000000005276f6                netcdf_mp_nf90_get_var_6d_eightbytereal_
                0x0000000000528986                netcdf_mp_nf90_get_var_7d_eightbytereal_
 *fill*         0x0000000000529cd8        0x8 
 .text          0x0000000000529ce0      0xe80 /apps/netcdf/3.6.3-intel/lib/libnetcdf.a(fort-attio.o)
                0x0000000000529d30                nf_put_att_text_
                0x0000000000529e60                nf_get_att_text_
                0x0000000000529f80                nf_put_att_int1_
                0x000000000052a0c0                nf_get_att_int1_
                0x000000000052a1e0                nf_put_att_int2_
                0x000000000052a320                nf_get_att_int2_
                0x000000000052a440                nf_put_att_int_
                0x000000000052a580                nf_get_att_int_
                0x000000000052a6a0                nf_put_att_real_
                0x000000000052a7e0                nf_get_att_real_
                0x000000000052a900                nf_put_att_double_
                0x000000000052aa40                nf_get_att_double_
 .text          0x000000000052ab60      0x98b /apps/netcdf/3.6.3-intel/lib/libnetcdf.a(fort-control.o)
                0x000000000052ab60                nf_inq_base_pe_
                0x000000000052ab80                nf_set_base_pe_
                0x000000000052ab90                nf_close_
                0x000000000052aba0                nf_abort_
                0x000000000052abb0                nf_sync_
                0x000000000052abc0                nf__enddef_
                0x000000000052abe0                nf_enddef_
                0x000000000052abf0                nf_redef_
                0x000000000052ac00                nf_set_default_format_
                0x000000000052ac20                nf_set_fill_
                0x000000000052aca0                nf_create_
                0x000000000052ad90                nf__create_
                0x000000000052aec0                nf_open_
                0x000000000052afb0                nf__open_
                0x000000000052b0d0                nf_delete_
                0x000000000052b1a0                nf__create_mp_
                0x000000000052b2e0                nf__open_mp_
                0x000000000052b410                nf_delete_mp_
 *fill*         0x000000000052b4eb        0x5 
 .text          0x000000000052b4f0      0x597 /apps/netcdf/3.6.3-intel/lib/libnetcdf.a(fort-dim.o)
                0x000000000052b4f0                nf_inq_dimlen_
                0x000000000052b570                nf_def_dim_
                0x000000000052b690                nf_inq_dimid_
                0x000000000052b7a0                nf_inq_dim_
                0x000000000052b8a0                nf_inq_dimname_
                0x000000000052b980                nf_rename_dim_
 *fill*         0x000000000052ba87        0x9 
 .text          0x000000000052ba90      0x9d7 /apps/netcdf/3.6.3-intel/lib/libnetcdf.a(fort-genatt.o)
                0x000000000052bae0                nf_inq_att_
                0x000000000052bc10                nf_inq_attid_
                0x000000000052bd30                nf_inq_atttype_
                0x000000000052be50                nf_inq_attlen_
                0x000000000052bf70                nf_inq_attname_
                0x000000000052c060                nf_copy_att_
                0x000000000052c1a0                nf_rename_att_
                0x000000000052c360                nf_del_att_
 *fill*         0x000000000052c467        0x9 
 .text          0x000000000052c470      0x142 /apps/netcdf/3.6.3-intel/lib/libnetcdf.a(fort-geninq.o)
                0x000000000052c470                nf_inq_format_
                0x000000000052c490                nf_inq_unlimdim_
                0x000000000052c4d0                nf_inq_natts_
                0x000000000052c4f0                nf_inq_nvars_
                0x000000000052c510                nf_inq_ndims_
                0x000000000052c530                nf_inq_
 *fill*         0x000000000052c5b2        0xe 
 .text          0x000000000052c5c0      0x777 /apps/netcdf/3.6.3-intel/lib/libnetcdf.a(fort-genvar.o)
                0x000000000052c5c0                nf_copy_var_
                0x000000000052c5d0                nf_inq_varnatts_
                0x000000000052c600                nf_inq_vardimid_
                0x000000000052c690                nf_inq_varndims_
                0x000000000052c6c0                nf_inq_vartype_
                0x000000000052c740                nf_def_var_
                0x000000000052c8d0                nf_inq_var_
                0x000000000052ca60                nf_inq_varid_
                0x000000000052cb50                nf_inq_varname_
                0x000000000052cc30                nf_rename_var_
 *fill*         0x000000000052cd37        0x9 
 .text          0x000000000052cd40      0x2e4 /apps/netcdf/3.6.3-intel/lib/libnetcdf.a(fort-lib.o)
                0x000000000052cd40                f2c_dimids
                0x000000000052cd80                f2c_strides
                0x000000000052cdf0                f2c_maps
                0x000000000052ce00                f2c_counts
                0x000000000052ce70                f2c_coords
                0x000000000052cef0                f2c_chunksizes
                0x000000000052cf60                c2f_chunksizes
                0x000000000052cfc0                c2f_dimids
 *fill*         0x000000000052d024        0xc 
 .text          0x000000000052d030      0x163 /apps/netcdf/3.6.3-intel/lib/libnetcdf.a(fort-misc.o)
                0x000000000052d030                nf_issyserr_
                0x000000000052d040                nf_strerror_
                0x000000000052d0f0                nf_inq_libvers_
 *fill*         0x000000000052d193        0xd 
 .text          0x000000000052d1a0      0x611 /apps/netcdf/3.6.3-intel/lib/libnetcdf.a(fort-var1io.o)
                0x000000000052d1a0                nf_get_var1_
                0x000000000052d210                nf_put_var1_
                0x000000000052d280                nf_get_var1_double_
                0x000000000052d2f0                nf_put_var1_double_
                0x000000000052d360                nf_get_var1_real_
                0x000000000052d3d0                nf_put_var1_real_
                0x000000000052d440                nf_get_var1_int_
                0x000000000052d4b0                nf_put_var1_int_
                0x000000000052d520                nf_get_var1_int2_
                0x000000000052d590                nf_put_var1_int2_
                0x000000000052d600                nf_get_var1_int1_
                0x000000000052d670                nf_put_var1_int1_
                0x000000000052d6e0                nf_get_var1_text_
                0x000000000052d750                nf_put_var1_text_
 *fill*         0x000000000052d7b1        0xf 
 .text          0x000000000052d7c0      0x8b8 /apps/netcdf/3.6.3-intel/lib/libnetcdf.a(fort-varaio.o)
                0x000000000052d7c0                nf_get_vara_
                0x000000000052d860                nf_put_vara_
                0x000000000052d900                nf_get_vara_double_
                0x000000000052d9a0                nf_put_vara_double_
                0x000000000052da40                nf_get_vara_real_
                0x000000000052dae0                nf_put_vara_real_
                0x000000000052db80                nf_get_vara_int_
                0x000000000052dc20                nf_put_vara_int_
                0x000000000052dcc0                nf_get_vara_int2_
                0x000000000052dd60                nf_put_vara_int2_
                0x000000000052de00                nf_get_vara_int1_
                0x000000000052dea0                nf_put_vara_int1_
                0x000000000052df40                nf_get_vara_text_
                0x000000000052dfe0                nf_put_vara_text_
 *fill*         0x000000000052e078        0x8 
 .text          0x000000000052e080      0xbf6 /apps/netcdf/3.6.3-intel/lib/libnetcdf.a(fort-varmio.o)
                0x000000000052e080                nf_get_varm_double_
                0x000000000052e180                nf_put_varm_double_
                0x000000000052e280                nf_get_varm_real_
                0x000000000052e380                nf_put_varm_real_
                0x000000000052e480                nf_get_varm_int_
                0x000000000052e580                nf_put_varm_int_
                0x000000000052e680                nf_get_varm_int2_
                0x000000000052e780                nf_put_varm_int2_
                0x000000000052e880                nf_get_varm_int1_
                0x000000000052e980                nf_put_varm_int1_
                0x000000000052ea80                nf_get_varm_text_
                0x000000000052eb80                nf_put_varm_text_
 *fill*         0x000000000052ec76        0xa 
 .text          0x000000000052ec80      0xb56 /apps/netcdf/3.6.3-intel/lib/libnetcdf.a(fort-varsio.o)
                0x000000000052ec80                nf_get_vars_
                0x000000000052ed50                nf_put_vars_
                0x000000000052ee20                nf_get_vars_double_
                0x000000000052eef0                nf_put_vars_double_
                0x000000000052efc0                nf_get_vars_real_
                0x000000000052f090                nf_put_vars_real_
                0x000000000052f160                nf_get_vars_int_
                0x000000000052f230                nf_put_vars_int_
                0x000000000052f300                nf_get_vars_int2_
                0x000000000052f3d0                nf_put_vars_int2_
                0x000000000052f4a0                nf_get_vars_int1_
                0x000000000052f570                nf_put_vars_int1_
                0x000000000052f640                nf_get_vars_text_
                0x000000000052f710                nf_put_vars_text_
 *fill*         0x000000000052f7d6        0xa 
 .text          0x000000000052f7e0     0x2e54 /apps/netcdf/3.6.3-intel/lib/libnetcdf.a(attr.o)
                0x000000000052f860                elem_NC_attrarray
                0x000000000052f8d0                free_NC_attr
                0x000000000052f900                free_NC_attrarrayV0
                0x000000000052f990                free_NC_attrarrayV
                0x000000000052faa0                new_x_NC_attr
                0x00000000005300a0                nc_del_att
                0x0000000000530230                NC_findattr
                0x00000000005303f0                nc_get_att_double
                0x00000000005304b0                nc_get_att_float
                0x0000000000530570                nc_get_att_long
                0x0000000000530630                nc_get_att_int
                0x00000000005306f0                nc_get_att_short
                0x00000000005307b0                nc_get_att_uchar
                0x0000000000530870                nc_get_att_schar
                0x0000000000530930                nc_get_att_text
                0x0000000000530980                nc_inq_att
                0x00000000005309d0                nc_inq_attlen
                0x0000000000530a00                nc_inq_atttype
                0x0000000000530a30                nc_put_att_double
                0x0000000000530ce0                nc_put_att_float
                0x0000000000530f90                nc_put_att_long
                0x0000000000531240                nc_put_att_int
                0x00000000005314f0                nc_put_att_short
                0x00000000005317a0                nc_put_att_uchar
                0x0000000000531a50                nc_put_att_schar
                0x0000000000531d00                nc_put_att_text
                0x0000000000531f60                nc_inq_attid
                0x0000000000532030                nc_copy_att
                0x0000000000532250                nc_rename_att
                0x00000000005323e0                nc_inq_attname
                0x00000000005324b0                dup_NC_attrarrayV
 *fill*         0x0000000000532634        0xc 
 .text          0x0000000000532640     0x3bb4 /apps/netcdf/3.6.3-intel/lib/libnetcdf.a(ncx.o)
                0x0000000000532960                ncx_get_short_schar
                0x0000000000532980                ncx_get_short_uchar
                0x00000000005329a0                ncx_get_short_short
                0x00000000005329c0                ncx_get_short_int
                0x00000000005329e0                ncx_get_short_long
                0x0000000000532a00                ncx_get_short_float
                0x0000000000532a20                ncx_get_short_double
                0x0000000000532a40                ncx_put_short_schar
                0x0000000000532a70                ncx_put_short_uchar
                0x0000000000532a80                ncx_put_short_short
                0x0000000000532aa0                ncx_put_short_int
                0x0000000000532ad0                ncx_put_short_long
                0x0000000000532b00                ncx_put_short_float
                0x0000000000532b40                ncx_put_short_double
                0x0000000000532b80                ncx_get_int_schar
                0x0000000000532bb0                ncx_get_int_uchar
                0x0000000000532be0                ncx_get_int_short
                0x0000000000532c20                ncx_get_int_int
                0x0000000000532c50                ncx_get_int_long
                0x0000000000532c80                ncx_get_int_float
                0x0000000000532cb0                ncx_get_int_double
                0x0000000000532ce0                ncx_put_int_schar
                0x0000000000532d20                ncx_put_int_uchar
                0x0000000000532d40                ncx_put_int_short
                0x0000000000532d60                ncx_put_int_int
                0x0000000000532d80                ncx_put_int_long
                0x0000000000532db0                ncx_put_int_float
                0x0000000000532e00                ncx_put_int_double
                0x0000000000532e50                ncx_get_float_schar
                0x0000000000532ea0                ncx_get_float_uchar
                0x0000000000532f00                ncx_get_float_short
                0x0000000000532f50                ncx_get_float_int
                0x0000000000532fb0                ncx_get_float_long
                0x0000000000533000                ncx_get_float_float
                0x0000000000533020                ncx_get_float_double
                0x0000000000533050                ncx_put_float_schar
                0x0000000000533080                ncx_put_float_uchar
                0x00000000005330b0                ncx_put_float_short
                0x00000000005330e0                ncx_put_float_int
                0x0000000000533130                ncx_put_float_long
                0x0000000000533180                ncx_put_float_float
                0x00000000005331a0                ncx_put_float_double
                0x0000000000533280                ncx_get_double_schar
                0x00000000005332d0                ncx_get_double_uchar
                0x0000000000533320                ncx_get_double_short
                0x0000000000533370                ncx_get_double_int
                0x00000000005333c0                ncx_get_double_long
                0x0000000000533410                ncx_get_double_float
                0x0000000000533460                ncx_get_double_double
                0x0000000000533470                ncx_put_double_schar
                0x00000000005334a0                ncx_put_double_uchar
                0x00000000005334d0                ncx_put_double_short
                0x0000000000533500                ncx_put_double_int
                0x0000000000533520                ncx_put_double_long
                0x0000000000533570                ncx_put_double_float
                0x00000000005335c0                ncx_put_double_double
                0x00000000005335d0                ncx_get_size_t
                0x0000000000533610                ncx_getn_schar_short
                0x0000000000533640                ncx_getn_schar_int
                0x0000000000533670                ncx_getn_schar_long
                0x00000000005336a0                ncx_getn_schar_float
                0x00000000005336e0                ncx_getn_schar_double
                0x0000000000533720                ncx_pad_getn_schar_short
                0x0000000000533770                ncx_pad_getn_schar_int
                0x00000000005337c0                ncx_pad_getn_schar_long
                0x0000000000533810                ncx_pad_getn_schar_float
                0x0000000000533870                ncx_pad_getn_schar_double
                0x00000000005338d0                ncx_putn_schar_short
                0x0000000000533930                ncx_putn_schar_int
                0x0000000000533990                ncx_putn_schar_long
                0x00000000005339f0                ncx_putn_schar_float
                0x0000000000533a50                ncx_putn_schar_double
                0x0000000000533ab0                ncx_getn_short_schar
                0x0000000000533b10                ncx_getn_short_uchar
                0x0000000000533b70                ncx_getn_short_short
                0x0000000000533bb0                ncx_getn_short_int
                0x0000000000533bf0                ncx_getn_short_long
                0x0000000000533c30                ncx_getn_short_float
                0x0000000000533c80                ncx_getn_short_double
                0x0000000000533cd0                ncx_pad_getn_short_schar
                0x0000000000533d40                ncx_pad_getn_short_uchar
                0x0000000000533da0                ncx_pad_getn_short_short
                0x0000000000533df0                ncx_pad_getn_short_int
                0x0000000000533e40                ncx_pad_getn_short_long
                0x0000000000533e90                ncx_pad_getn_short_float
                0x0000000000533ee0                ncx_pad_getn_short_double
                0x0000000000533f30                ncx_putn_short_schar
                0x0000000000533f70                ncx_putn_short_uchar
                0x0000000000533fb0                ncx_putn_short_short
                0x0000000000533ff0                ncx_putn_short_int
                0x0000000000534050                ncx_putn_short_long
                0x00000000005340b0                ncx_putn_short_float
                0x0000000000534120                ncx_putn_short_double
                0x0000000000534190                ncx_getn_int_schar
                0x0000000000534200                ncx_getn_int_uchar
                0x0000000000534270                ncx_getn_int_short
                0x00000000005342f0                ncx_getn_int_int
                0x0000000000534330                ncx_getn_int_long
                0x0000000000534390                ncx_getn_int_float
                0x00000000005343f0                ncx_getn_int_double
                0x0000000000534450                ncx_putn_int_schar
                0x00000000005344d0                ncx_putn_int_uchar
                0x0000000000534510                ncx_putn_int_short
                0x0000000000534570                ncx_putn_int_int
                0x00000000005345b0                ncx_putn_int_long
                0x0000000000534630                ncx_putn_int_float
                0x00000000005346b0                ncx_putn_int_double
                0x0000000000534730                ncx_getn_float_schar
                0x00000000005347b0                ncx_getn_float_uchar
                0x0000000000534830                ncx_getn_float_short
                0x00000000005348b0                ncx_getn_float_int
                0x0000000000534930                ncx_getn_float_long
                0x00000000005349b0                ncx_getn_float_float
                0x00000000005349f0                ncx_getn_float_double
                0x0000000000534a60                ncx_putn_float_schar
                0x0000000000534ae0                ncx_putn_float_uchar
                0x0000000000534b60                ncx_putn_float_short
                0x0000000000534be0                ncx_putn_float_int
                0x0000000000534c60                ncx_putn_float_long
                0x0000000000534ce0                ncx_putn_float_float
                0x0000000000534d20                ncx_putn_float_double
                0x0000000000534da0                ncx_getn_double_schar
                0x0000000000534e20                ncx_getn_double_uchar
                0x0000000000534ea0                ncx_getn_double_short
                0x0000000000534f20                ncx_getn_double_int
                0x0000000000534fa0                ncx_getn_double_long
                0x0000000000535020                ncx_getn_double_float
                0x00000000005350a0                ncx_getn_double_double
                0x00000000005350e0                ncx_putn_double_schar
                0x0000000000535160                ncx_putn_double_uchar
                0x00000000005351e0                ncx_putn_double_short
                0x0000000000535260                ncx_putn_double_int
                0x00000000005352e0                ncx_putn_double_long
                0x0000000000535360                ncx_putn_double_float
                0x00000000005353e0                ncx_putn_double_double
                0x0000000000535420                ncx_pad_putn_void
                0x00000000005354a0                ncx_putn_void
                0x00000000005354e0                ncx_pad_getn_void
                0x0000000000535540                ncx_getn_void
                0x0000000000535580                ncx_pad_putn_text
                0x0000000000535600                ncx_putn_text
                0x0000000000535640                ncx_pad_getn_text
                0x00000000005356a0                ncx_getn_text
                0x00000000005356e0                ncx_pad_putn_short_double
                0x0000000000535760                ncx_pad_putn_short_float
                0x00000000005357e0                ncx_pad_putn_short_long
                0x0000000000535860                ncx_pad_putn_short_int
                0x00000000005358e0                ncx_pad_putn_short_short
                0x0000000000535930                ncx_pad_putn_short_uchar
                0x0000000000535980                ncx_pad_putn_short_schar
                0x00000000005359e0                ncx_pad_putn_schar_double
                0x0000000000535aa0                ncx_pad_putn_schar_float
                0x0000000000535b50                ncx_pad_putn_schar_long
                0x0000000000535bf0                ncx_pad_putn_schar_int
                0x0000000000535c90                ncx_pad_putn_schar_short
                0x0000000000535d30                ncx_pad_putn_schar_uchar
                0x0000000000535db0                ncx_pad_putn_schar_schar
                0x0000000000535e30                ncx_putn_schar_uchar
                0x0000000000535e70                ncx_putn_schar_schar
                0x0000000000535eb0                ncx_pad_getn_schar_uchar
                0x0000000000535f10                ncx_pad_getn_schar_schar
                0x0000000000535f70                ncx_getn_schar_uchar
                0x0000000000535fb0                ncx_getn_schar_schar
                0x0000000000535ff0                ncx_get_off_t
                0x00000000005360f0                ncx_put_off_t
                0x00000000005361a0                ncx_put_size_t
 *fill*         0x00000000005361f4        0xc 
 .text          0x0000000000536200    0x105d7 /apps/netcdf/3.6.3-intel/lib/libnetcdf.a(putget.o)
                0x0000000000536200                nctypelen
                0x0000000000536380                nc_put_att
                0x0000000000536400                nc_get_att
                0x0000000000536ee0                nc_put_var_double
                0x0000000000537620                nc_put_var_float
                0x0000000000537d60                nc_put_var_long
                0x00000000005384a0                nc_put_var_int
                0x0000000000538be0                nc_put_var_short
                0x0000000000539320                nc_put_var_schar
                0x0000000000539a50                nc_put_var_uchar
                0x0000000000539d80                nc_put_var_text
                0x000000000053a4b0                nc_get_var_double
                0x000000000053a690                nc_get_vara_double
                0x000000000053a920                nc_get_varm_double
                0x000000000053adb0                nc_get_vars_double
                0x000000000053add0                nc_get_var1_double
                0x000000000053b3c0                nc_get_var_float
                0x000000000053b5a0                nc_get_vara_float
                0x000000000053b830                nc_get_varm_float
                0x000000000053bcc0                nc_get_vars_float
                0x000000000053bce0                nc_get_var1_float
                0x000000000053c2d0                nc_get_var_long
                0x000000000053c4b0                nc_get_vara_long
                0x000000000053c740                nc_get_varm_long
                0x000000000053cbd0                nc_get_vars_long
                0x000000000053cbf0                nc_get_var1_long
                0x000000000053d1e0                nc_get_var_int
                0x000000000053d3c0                nc_get_vara_int
                0x000000000053d650                nc_get_varm_int
                0x000000000053dae0                nc_get_vars_int
                0x000000000053db00                nc_get_var1_int
                0x000000000053e0f0                nc_get_var_short
                0x000000000053e2c0                nc_get_vara_short
                0x000000000053e550                nc_get_varm_short
                0x000000000053e9e0                nc_get_vars_short
                0x000000000053ea00                nc_get_var1_short
                0x000000000053efc0                nc_get_var_schar
                0x000000000053f190                nc_get_vara_schar
                0x000000000053f410                nc_get_varm_schar
                0x000000000053f880                nc_get_vars_schar
                0x000000000053f8a0                nc_get_var1_schar
                0x000000000053fe70                nc_get_var_uchar
                0x0000000000540040                nc_get_vara_uchar
                0x00000000005402c0                nc_get_varm_uchar
                0x0000000000540730                nc_get_vars_uchar
                0x0000000000540750                nc_get_var1_uchar
                0x0000000000540940                nc_get_var_text
                0x0000000000540b10                nc_get_vara_text
                0x0000000000540da0                nc_get_vara
                0x0000000000540ea0                nc_get_varm_text
                0x0000000000541300                nc_get_varm
                0x00000000005415e0                nc_get_vars
                0x0000000000541600                nc_get_vars_text
                0x0000000000541620                nc_get_var1_text
                0x00000000005416c0                nc_get_var1
                0x00000000005417a0                fill_NC_var
                0x0000000000541e30                nc_copy_var
                0x0000000000542080                nc_put_vara_double
                0x0000000000542310                nc_put_varm_double
                0x00000000005427e0                nc_put_vars_double
                0x0000000000542800                nc_put_vara_float
                0x0000000000542a90                nc_put_varm_float
                0x0000000000542f60                nc_put_vars_float
                0x0000000000542f80                nc_put_vara_long
                0x0000000000543210                nc_put_varm_long
                0x00000000005436e0                nc_put_vars_long
                0x0000000000543700                nc_put_vara_int
                0x0000000000543990                nc_put_varm_int
                0x0000000000543e60                nc_put_vars_int
                0x0000000000543e80                nc_put_vara_short
                0x0000000000544110                nc_put_varm_short
                0x00000000005445d0                nc_put_vars_short
                0x00000000005445f0                nc_put_vara_schar
                0x0000000000544880                nc_put_varm_schar
                0x0000000000544d30                nc_put_vars_schar
                0x0000000000544d50                nc_put_vara_uchar
                0x0000000000544fe0                nc_put_varm_uchar
                0x0000000000545490                nc_put_vars_uchar
                0x00000000005454b0                nc_put_vara_text
                0x0000000000545740                nc_put_vara
                0x0000000000545840                nc_put_varm_text
                0x0000000000545ce0                nc_put_varm
                0x0000000000545fc0                nc_put_vars
                0x0000000000545fe0                nc_put_vars_text
                0x0000000000546000                nc_put_var1_double
                0x00000000005460e0                nc_put_var1_float
                0x00000000005461c0                nc_put_var1_long
                0x00000000005462a0                nc_put_var1_int
                0x0000000000546380                nc_put_var1_short
                0x0000000000546460                nc_put_var1_schar
                0x0000000000546540                nc_put_var1_uchar
                0x0000000000546620                nc_put_var1_text
                0x0000000000546700                nc_put_var1
 *fill*         0x00000000005467d7        0x9 
 .text          0x00000000005467e0      0xab8 /apps/netcdf/3.6.3-intel/lib/libnetcdf.a(dim.o)
                0x00000000005467e0                free_NC_dim
                0x0000000000546810                elem_NC_dimarray
                0x0000000000546880                nc_inq_dimlen
                0x0000000000546900                free_NC_dimarrayV0
                0x0000000000546990                free_NC_dimarrayV
                0x0000000000546a00                find_NC_Udim
                0x0000000000546ba0                nc_rename_dim
                0x0000000000546d00                nc_inq_dimid
                0x0000000000546d70                nc_inq_dimname
                0x0000000000546e00                nc_inq_dim
                0x0000000000546ec0                new_x_NC_dim
                0x0000000000546f70                nc_def_dim
                0x0000000000547160                dup_NC_dimarrayV
 *fill*         0x0000000000547298        0x8 
 .text          0x00000000005472a0       0x3c /apps/netcdf/3.6.3-intel/lib/libnetcdf.a(error.o)
                0x00000000005472a0                nc_strerror
 *fill*         0x00000000005472dc        0x4 
 .text          0x00000000005472e0        0x6 /apps/netcdf/3.6.3-intel/lib/libnetcdf.a(libvers.o)
                0x00000000005472e0                nc_inq_libvers
 *fill*         0x00000000005472e6        0xa 
 .text          0x00000000005472f0     0x1bbb /apps/netcdf/3.6.3-intel/lib/libnetcdf.a(nc.o)
                0x00000000005472f0                NC_check_id
                0x0000000000547330                nc_cktype
                0x0000000000547340                nc_set_default_format
                0x0000000000547370                nc_inq_ndims
                0x00000000005473c0                nc_inq_nvars
                0x0000000000547410                nc_inq_natts
                0x0000000000547460                nc_set_base_pe
                0x0000000000547470                nc_inq_base_pe
                0x0000000000547480                nc_inq_format
                0x0000000000547510                nc_inq_unlimdim
                0x0000000000547570                nc_inq
                0x0000000000547640                nc_redef
                0x0000000000547930                ncx_howmany
                0x0000000000547a30                nc_delete_mp
                0x0000000000547b30                nc_delete
                0x0000000000547b40                nc__open_mp
                0x0000000000547ca0                nc__open
                0x0000000000547cb0                nc_open
                0x0000000000548540                nc_enddef
                0x00000000005485b0                nc__enddef
                0x0000000000548610                nc__create_mp
                0x0000000000548830                nc__create
                0x0000000000548840                nc_create
                0x0000000000548850                NC_calcsize
                0x0000000000548970                write_numrecs
                0x0000000000548a50                NC_sync
                0x0000000000548ab0                nc_set_fill
                0x0000000000548b50                nc_sync
                0x0000000000548bb0                nc_abort
                0x0000000000548ca0                nc_close
                0x0000000000548df0                read_numrecs
 *fill*         0x0000000000548eab        0x5 
 .text          0x0000000000548eb0      0x322 /apps/netcdf/3.6.3-intel/lib/libnetcdf.a(string.o)
                0x0000000000548eb0                nextUTF8
                0x0000000000548f40                set_NC_string
                0x0000000000548fe0                new_NC_string
                0x0000000000549090                NC_check_name
                0x00000000005491c0                free_NC_string
 *fill*         0x00000000005491d2        0xe 
 .text          0x00000000005491e0     0x1700 /apps/netcdf/3.6.3-intel/lib/libnetcdf.a(v1hpg.o)
                0x00000000005493d0                ncx_len_NC
                0x0000000000549a10                nc_get_NC
                0x000000000054a4b0                ncx_put_NC
 .text          0x000000000054a8e0     0x111a /apps/netcdf/3.6.3-intel/lib/libnetcdf.a(var.o)
                0x000000000054a8e0                NC_check_vlen
                0x000000000054a9d0                nc_inq_varnatts
                0x000000000054aa60                nc_inq_vardimid
                0x000000000054aaf0                nc_inq_varndims
                0x000000000054ab60                nc_inq_vartype
                0x000000000054abd0                NC_lookupvar
                0x000000000054abf0                ncx_szof
                0x000000000054ac70                nc_inq_varname
                0x000000000054ad00                nc_inq_var
                0x000000000054ae20                NC_var_shape
                0x000000000054b010                NC_findvar
                0x000000000054b130                nc_rename_var
                0x000000000054b2b0                nc_inq_varid
                0x000000000054b320                new_x_NC_var
                0x000000000054b4b0                free_NC_var
                0x000000000054b4e0                nc_def_var
                0x000000000054b720                free_NC_vararrayV0
                0x000000000054b7b0                free_NC_vararrayV
                0x000000000054b820                dup_NC_vararrayV
 *fill*         0x000000000054b9fa        0x6 
 .text          0x000000000054ba00     0x101f /apps/netcdf/3.6.3-intel/lib/libnetcdf.a(utf8proc.o)
                0x000000000054ba00                utf8proc_errmsg
                0x000000000054ba20                utf8proc_iterate
                0x000000000054bb90                utf8proc_codepoint_valid
                0x000000000054bbd0                utf8proc_encode_char
                0x000000000054bcc0                utf8proc_get_property
                0x000000000054bd00                utf8proc_decompose_char
                0x000000000054c270                utf8proc_decompose
                0x000000000054c4b0                utf8proc_reencode
                0x000000000054c880                utf8proc_check
                0x000000000054c8a0                utf8proc_map
                0x000000000054c9a0                utf8proc_NFKC
                0x000000000054c9c0                utf8proc_NFKD
                0x000000000054c9e0                utf8proc_NFC
                0x000000000054ca00                utf8proc_NFD
 *fill*         0x000000000054ca1f        0x1 
 .text          0x000000000054ca20     0x1a3e /apps/netcdf/3.6.3-intel/lib/libnetcdf.a(posixio.o)
                0x000000000054ca60                ncio_close
                0x000000000054cb90                ncio_pad_length
                0x000000000054cc90                ncio_filesize
                0x000000000054e0a0                ncio_open
                0x000000000054e200                ncio_create
 *fill*         0x000000000054e45e        0x2 
 .text          0x000000000054e460      0x8a0 /apps/intel/composer_xe_2013_sp1.2.144/compiler/lib/intel64/libifcoremt.a(for_close.o)
                0x000000000054e460                for_close
                0x000000000054ea50                for__close_args
                0x000000000054eb90                for__close_default
 .text          0x000000000054ed00      0x6e0 /apps/intel/composer_xe_2013_sp1.2.144/compiler/lib/intel64/libifcoremt.a(for_close_proc.o)
                0x000000000054ed00                for__close_proc
 .text          0x000000000054f3e0     0x6670 /apps/intel/composer_xe_2013_sp1.2.144/compiler/lib/intel64/libifcoremt.a(for_contig_array.o)
                0x000000000054f3e0                for_contig_array
                0x000000000054f440                for_array_copy_in
                0x0000000000552800                for_array_copy_out
 .text          0x0000000000555a50      0xd80 /apps/intel/composer_xe_2013_sp1.2.144/compiler/lib/intel64/libifcoremt.a(for_desc_item.o)
                0x0000000000555a50                for__desc_ret_item
                0x0000000000555de0                for__key_desc_ret_item
                0x0000000000556150                for__desc_test_item
                0x00000000005563c0                for__desc_zero_length_item
 .text          0x00000000005567d0     0x4b20 /apps/intel/composer_xe_2013_sp1.2.144/compiler/lib/intel64/libifcoremt.a(for_diags_intel.o)
                0x00000000005567d0                for__this_image_number_or_zero
                0x0000000000556820                for__io_return
                0x0000000000557540                for__issue_diagnostic
                0x0000000000557ef0                for__get_msg
                0x0000000000558200                for_emit_diagnostic
                0x0000000000558380                for__message_catalog_close
                0x00000000005598b0                for_errmsg
                0x0000000000559a90                for__rtc_uninit_use
                0x0000000000559ab0                TRACEBACKQQ
                0x0000000000559d00                tracebackqq_
                0x0000000000559f60                for_perror_
                0x000000000055a480                for_gerror_
                0x000000000055b2b0                for__establish_user_error_handler
 .text          0x000000000055b2f0      0x300 /apps/intel/composer_xe_2013_sp1.2.144/compiler/lib/intel64/libifcoremt.a(for_exit_handler.o)
                0x000000000055b2f0                for__fpe_exit_handler
                0x000000000055b3d0                for__exit_handler
 .text          0x000000000055b5f0     0x2750 /apps/intel/composer_xe_2013_sp1.2.144/compiler/lib/intel64/libifcoremt.a(for_init.o)
                0x000000000055b5f0                for_setup_mxcsr
                0x000000000055b760                for__signal_handler
                0x000000000055c5d0                for_enable_underflow
                0x000000000055c5f0                for_get_fpe_
                0x000000000055c7e0                for_set_fpe_
                0x000000000055cb80                for_get_fpe_counts_
                0x000000000055cbd0                for_rtl_finish_
                0x000000000055cbf0                dump_dfil_exception_info
                0x000000000055dae0                for_rtl_init_
 .text          0x000000000055dd40     0x6cc0 /apps/intel/composer_xe_2013_sp1.2.144/compiler/lib/intel64/libifcoremt.a(for_inquire.o)
                0x000000000055dd40                for_inquire
 .text          0x0000000000564a00      0xbd0 /apps/intel/composer_xe_2013_sp1.2.144/compiler/lib/intel64/libifcoremt.a(for_io_util.o)
                0x0000000000564a00                for__adjust_buffer
                0x0000000000564c70                for__lower_bound_index
                0x0000000000564cc0                for__cvt_foreign_read
                0x0000000000564f60                for__cvt_foreign_write
                0x0000000000565470                for__cvt_foreign_check
                0x0000000000565500                for_check_env_name
 .text          0x00000000005655d0     0x3620 /apps/intel/composer_xe_2013_sp1.2.144/compiler/lib/intel64/libifcoremt.a(for_lub_mgt.o)
                0x00000000005655d0                for__release_lun
                0x0000000000565b90                for__create_lub
                0x0000000000565d50                for__deallocate_lub
                0x0000000000565da0                for__acquire_lun
                0x00000000005677d0                for__get_next_lub
                0x0000000000568730                for__get_free_newunit
                0x0000000000568b60                for__release_newunit
 .text          0x0000000000568bf0      0x8c0 /apps/intel/composer_xe_2013_sp1.2.144/compiler/lib/intel64/libifcoremt.a(for_need_lf.o)
                0x0000000000568bf0                for__add_to_lf_table
                0x0000000000569220                for__rm_from_lf_table
 .text          0x00000000005694b0     0x62f0 /apps/intel/composer_xe_2013_sp1.2.144/compiler/lib/intel64/libifcoremt.a(for_open.o)
                0x00000000005694b0                SetEndian
                0x0000000000569900                CheckStreamRecortType
                0x0000000000569e10                CheckEndian
                0x000000000056a290                for_open
                0x000000000056b860                for__update_reopen_keywords
                0x000000000056caa0                for__set_foreign_bits
                0x000000000056dd70                for__open_key
                0x000000000056e040                for__open_args
                0x000000000056e8a0                for__find_iomsg
                0x000000000056e950                for__set_terminator_option
                0x000000000056ee60                for__set_conversion_option
                0x000000000056f230                for__is_special_device
                0x000000000056f3f0                for__open_default
 .text          0x000000000056f7a0      0x240 /apps/intel/composer_xe_2013_sp1.2.144/compiler/lib/intel64/libifcoremt.a(for_preconnected_units_init.o)
                0x000000000056f7a0                for__preconnected_units_create
 .text          0x000000000056f9e0     0x20d0 /apps/intel/composer_xe_2013_sp1.2.144/compiler/lib/intel64/libifcoremt.a(for_put.o)
                0x000000000056f9e0                for__put_su
                0x0000000000570080                for__write_output
                0x0000000000570490                for__put_sf
                0x00000000005716e0                for__put_d
                0x0000000000571980                for__flush_readahead
 .text          0x0000000000571ab0      0xe50 /apps/intel/composer_xe_2013_sp1.2.144/compiler/lib/intel64/libifcoremt.a(for_reentrancy.o)
                0x0000000000571ab0                for_set_reentrancy
                0x0000000000571ad0                for__reentrancy_cleanup
                0x0000000000571e10                for__access_threadstor_threads
                0x00000000005720a0                for__acquire_threadstor_threads
                0x0000000000572330                for__disable_asynch_deliv_private
                0x0000000000572350                for__enable_asynch_deliv_private
                0x0000000000572370                for__acquire_semaphore_threaded
                0x0000000000572450                for__once_private
                0x0000000000572610                for__reentrancy_init
 .text          0x0000000000572900     0x2f30 /apps/intel/composer_xe_2013_sp1.2.144/compiler/lib/intel64/libifcoremt.a(for_rint_fmt.o)
                0x0000000000572900                for_read_int_fmt
                0x0000000000573d60                for_read_int_fmt_xmit
 .text          0x0000000000575830     0xfad0 /apps/intel/composer_xe_2013_sp1.2.144/compiler/lib/intel64/libifcoremt.a(for_rseq_nml.o)
                0x0000000000575830                for_read_int_nml
                0x0000000000575950                for_read_seq_nml
 .text          0x0000000000585300     0x30c0 /apps/intel/composer_xe_2013_sp1.2.144/compiler/lib/intel64/libifcoremt.a(for_stop.o)
                0x0000000000585300                for_abort
                0x0000000000585ee0                for_stop_core_impl
                0x0000000000586c60                for_stop_core
                0x00000000005878e0                for_stop
 .text          0x00000000005883c0      0xdf0 /apps/intel/composer_xe_2013_sp1.2.144/compiler/lib/intel64/libifcoremt.a(for_vm.o)
                0x00000000005883c0                for__set_signal_ops_during_vm
                0x00000000005883f0                for__get_vm
                0x0000000000588510                for__realloc_vm
                0x00000000005885f0                for__free_vm
                0x0000000000588660                for_allocate
                0x0000000000588900                for_alloc_allocatable
                0x0000000000588ba0                for_deallocate
                0x0000000000588d00                for_dealloc_allocatable
                0x0000000000588e90                for_check_mult_overflow
                0x0000000000588fb0                for_check_mult_overflow64
                0x0000000000589130                for__spec_align_alloc
                0x00000000005891a0                for__spec_align_free
 .text          0x00000000005891b0     0x3390 /apps/intel/composer_xe_2013_sp1.2.144/compiler/lib/intel64/libifcoremt.a(for_wint_fmt.o)
                0x00000000005891b0                for_write_int_fmt
                0x000000000058a670                for_write_int_fmt_xmit
 .text          0x000000000058c540     0x6c80 /apps/intel/composer_xe_2013_sp1.2.144/compiler/lib/intel64/libifcoremt.a(for_wseq.o)
                0x000000000058c540                for_write_seq
                0x000000000058e250                for_write_seq_xmit
                0x0000000000592d40                for__finish_ufseq_write
 .text          0x00000000005931c0     0x5420 /apps/intel/composer_xe_2013_sp1.2.144/compiler/lib/intel64/libifcoremt.a(for_wseq_fmt.o)
                0x00000000005931c0                for_write_seq_fmt
                0x00000000005951b0                for_write_seq_fmt_xmit
                0x00000000005983f0                for__write_args
 .text          0x00000000005985e0     0x7300 /apps/intel/composer_xe_2013_sp1.2.144/compiler/lib/intel64/libifcoremt.a(for_wseq_lis.o)
                0x00000000005985e0                ensure_one_leading_blank_before_data
                0x00000000005988f0                for_write_seq_lis
                0x000000000059a790                for_write_seq_lis_xmit
 .text          0x000000000059f8e0     0x85b0 /apps/intel/composer_xe_2013_sp1.2.144/compiler/lib/intel64/libifcoremt.a(for_wseq_nml.o)
                0x000000000059f8e0                for_write_int_nml
                0x000000000059fa00                for_write_seq_nml
 .text          0x00000000005a7e90      0x160 /apps/intel/composer_xe_2013_sp1.2.144/compiler/lib/intel64/libifcoremt.a(for_90_adjust.o)
                0x00000000005a7e90                for_adjustl
                0x00000000005a7f40                for_adjustr
 .text          0x00000000005a7ff0       0x90 /apps/intel/composer_xe_2013_sp1.2.144/compiler/lib/intel64/libifcoremt.a(for_90_trim.o)
                0x00000000005a7ff0                for_len_trim
                0x00000000005a8010                for_trim
 .text          0x00000000005a8080      0xf90 /apps/intel/composer_xe_2013_sp1.2.144/compiler/lib/intel64/libifcoremt.a(for_f90str.o)
                0x00000000005a8080                for_cpystr
                0x00000000005a8110                for_cpstr_gt
                0x00000000005a8320                for_cpstr_lt
                0x00000000005a8530                for_cpstr_eq
                0x00000000005a86c0                for_cpstr_ne
                0x00000000005a8860                for_cpstr_ge
                0x00000000005a8a70                for_cpstr_le
                0x00000000005a8c80                for_cpstr
                0x00000000005a8e30                for_concat
 .text          0x00000000005a9010     0x1260 /apps/intel/composer_xe_2013_sp1.2.144/compiler/lib/intel64/libifcoremt.a(tbk_traceback.o)
                0x00000000005a9010                tbk_stack_trace
 .text          0x00000000005aa270     0x55a0 /apps/intel/composer_xe_2013_sp1.2.144/compiler/lib/intel64/libifcoremt.a(for_aio.o)
                0x00000000005aa270                for__aio_acquire_lun_fname
                0x00000000005aa560                for__aio_release
                0x00000000005aa630                for__aio_acquire_lun
                0x00000000005ab040                for__aio_release_lun
                0x00000000005ab640                for__aio_destroy
                0x00000000005abae0                for_asynchronous
                0x00000000005acb80                for_waitid
                0x00000000005adbb0                for_wait
                0x00000000005aeb80                for__aio_check_unit
                0x00000000005aedd0                for__aio_error_handling
                0x00000000005af650                for__aio_init
 .text          0x00000000005af810     0x57f0 /apps/intel/composer_xe_2013_sp1.2.144/compiler/lib/intel64/libifcoremt.a(for_open_proc.o)
                0x00000000005af810                fname_from_piped_fd
                0x00000000005afa60                for__reopen_file
                0x00000000005afb60                for__compute_filename
                0x00000000005b24b0                for__open_proc
                0x00000000005b4ff0                for__decl_exit_hand
 .text          0x00000000005b5000       0xb0 /apps/intel/composer_xe_2013_sp1.2.144/compiler/lib/intel64/libifcoremt.a(for_aio_wrap.o)
                0x00000000005b5000                for__aio_pthread_self
                0x00000000005b5010                for__aio_pthread_create
                0x00000000005b5030                for__aio_pthread_cancel
                0x00000000005b5040                for__aio_pthread_detach
                0x00000000005b5050                for__aio_pthread_mutex_lock
                0x00000000005b5060                for__aio_pthread_mutex_unlock
                0x00000000005b5070                for__aio_pthread_cond_wait
                0x00000000005b5080                for__aio_pthread_cond_signal
                0x00000000005b5090                for__aio_pthread_mutex_init
                0x00000000005b50a0                for__aio_pthread_exit
 .text          0x00000000005b50b0      0xda0 /apps/intel/composer_xe_2013_sp1.2.144/compiler/lib/intel64/libifcoremt.a(cvt_vax_f.o)
                0x00000000005b50b0                cvt_vax_f_to_ieee_single_
                0x00000000005b5530                CVT_VAX_F_TO_IEEE_SINGLE
                0x00000000005b59b0                cvt_vax_f_to_ieee_single
 .text          0x00000000005b5e50      0xfc0 /apps/intel/composer_xe_2013_sp1.2.144/compiler/lib/intel64/libifcoremt.a(cvt_vax_d.o)
                0x00000000005b5e50                cvt_vax_d_to_ieee_double_
                0x00000000005b6390                CVT_VAX_D_TO_IEEE_DOUBLE
                0x00000000005b68d0                cvt_vax_d_to_ieee_double
 .text          0x00000000005b6e10      0xf70 /apps/intel/composer_xe_2013_sp1.2.144/compiler/lib/intel64/libifcoremt.a(cvt_vax_g.o)
                0x00000000005b6e10                cvt_vax_g_to_ieee_double_
                0x00000000005b7320                CVT_VAX_G_TO_IEEE_DOUBLE
                0x00000000005b7830                cvt_vax_g_to_ieee_double
 .text          0x00000000005b7d80     0x2020 /apps/intel/composer_xe_2013_sp1.2.144/compiler/lib/intel64/libifcoremt.a(cvt_cray.o)
                0x00000000005b7d80                cvt_cray_to_ieee_single_
                0x00000000005b8280                CVT_CRAY_TO_IEEE_SINGLE
                0x00000000005b8780                cvt_cray_to_ieee_single
                0x00000000005b8cb0                cvt_cray_to_ieee_double_
                0x00000000005b9240                CVT_CRAY_TO_IEEE_DOUBLE
                0x00000000005b97d0                cvt_cray_to_ieee_double
 .text          0x00000000005b9da0      0xe00 /apps/intel/composer_xe_2013_sp1.2.144/compiler/lib/intel64/libifcoremt.a(cvt_ibm_short.o)
                0x00000000005b9da0                cvt_ibm_short_to_ieee_single_
                0x00000000005ba240                CVT_IBM_SHORT_TO_IEEE_SINGLE
                0x00000000005ba6e0                cvt_ibm_short_to_ieee_single
 .text          0x00000000005baba0     0x1140 /apps/intel/composer_xe_2013_sp1.2.144/compiler/lib/intel64/libifcoremt.a(cvt_ibm_long.o)
                0x00000000005baba0                cvt_ibm_long_to_ieee_double_
                0x00000000005bb150                CVT_IBM_LONG_TO_IEEE_DOUBLE
                0x00000000005bb700                cvt_ibm_long_to_ieee_double
 .text          0x00000000005bbce0     0x4290 /apps/intel/composer_xe_2013_sp1.2.144/compiler/lib/intel64/libifcoremt.a(cvt_ieee_double.o)
                0x00000000005bbce0                cvt_ieee_double_to_cray_
                0x00000000005bc170                CVT_IEEE_DOUBLE_TO_CRAY
                0x00000000005bc600                cvt_ieee_double_to_cray
                0x00000000005bcac0                cvt_ieee_double_to_ibm_long_
                0x00000000005bcfa0                CVT_IEEE_DOUBLE_TO_IBM_LONG
                0x00000000005bd480                cvt_ieee_double_to_ibm_long
                0x00000000005bd980                cvt_ieee_double_to_vax_d_
                0x00000000005bdd70                CVT_IEEE_DOUBLE_TO_VAX_D
                0x00000000005be160                cvt_ieee_double_to_vax_d
                0x00000000005be580                cvt_ieee_double_to_vax_g_
                0x00000000005be970                CVT_IEEE_DOUBLE_TO_VAX_G
                0x00000000005bed60                cvt_ieee_double_to_vax_g
                0x00000000005bf190                cvt_ieee_double_to_vax_h_
                0x00000000005bf620                CVT_IEEE_DOUBLE_TO_VAX_H
                0x00000000005bfab0                cvt_ieee_double_to_vax_h
 .text          0x00000000005bff70     0x2000 /apps/intel/composer_xe_2013_sp1.2.144/compiler/lib/intel64/libifcoremt.a(cvt_ieee_single.o)
                0x00000000005bff70                cvt_ieee_single_to_cray_
                0x00000000005c0320                CVT_IEEE_SINGLE_TO_CRAY
                0x00000000005c06d0                cvt_ieee_single_to_cray
                0x00000000005c0ab0                cvt_ieee_single_to_ibm_short_
                0x00000000005c0eb0                CVT_IEEE_SINGLE_TO_IBM_SHORT
                0x00000000005c12b0                cvt_ieee_single_to_ibm_short
                0x00000000005c1690                cvt_ieee_single_to_vax_f_
                0x00000000005c1980                CVT_IEEE_SINGLE_TO_VAX_F
                0x00000000005c1c70                cvt_ieee_single_to_vax_f
 .text          0x00000000005c1f70     0x1af0 /apps/intel/composer_xe_2013_sp1.2.144/compiler/lib/intel64/libifcoremt.a(for_common_inquire.o)
                0x00000000005c1f70                for__common_inquire
                0x00000000005c3230                for__inquire_args
 .text          0x00000000005c3a60      0x220 /apps/intel/composer_xe_2013_sp1.2.144/compiler/lib/intel64/libifcoremt.a(for_default_io_sizes_env_init.o)
                0x00000000005c3a60                for__default_io_sizes_env_init
 .text          0x00000000005c3c80       0x20 /apps/intel/composer_xe_2013_sp1.2.144/compiler/lib/intel64/libifcoremt.a(for_exit.o)
                0x00000000005c3c80                for_exit
 .text          0x00000000005c3ca0     0x3360 /apps/intel/composer_xe_2013_sp1.2.144/compiler/lib/intel64/libifcoremt.a(for_fmt_comp.o)
                0x00000000005c3ca0                for__format_compiler
 .text          0x00000000005c7000     0x1910 /apps/intel/composer_xe_2013_sp1.2.144/compiler/lib/intel64/libifcoremt.a(for_fmt_val.o)
                0x00000000005c7000                for__format_value
                0x00000000005c7d80                for__cvt_value
 .text          0x00000000005c8910     0x20f0 /apps/intel/composer_xe_2013_sp1.2.144/compiler/lib/intel64/libifcoremt.a(for_get.o)
                0x00000000005c8910                for__get_s
                0x00000000005c9c20                for__read_input
                0x00000000005c9d60                for__get_d
                0x00000000005ca120                for__get_su_fields
 .text          0x00000000005caa00      0xf80 /apps/intel/composer_xe_2013_sp1.2.144/compiler/lib/intel64/libifcoremt.a(for_intrp_fmt.o)
                0x00000000005caa00                for__interp_fmt
 .text          0x00000000005cb980        0x0 /apps/intel/composer_xe_2013_sp1.2.144/compiler/lib/intel64/libifcoremt.a(for_ldir_wfs.o)
 .text          0x00000000005cb980     0x3000 /apps/intel/composer_xe_2013_sp1.2.144/compiler/lib/intel64/libifcoremt.a(for_rint_lis.o)
                0x00000000005cb980                for_read_int_lis
                0x00000000005ccba0                for_read_int_lis_xmit
                0x00000000005cdc10                for_ri_cvt_2step
 .text          0x00000000005ce980     0x4950 /apps/intel/composer_xe_2013_sp1.2.144/compiler/lib/intel64/libifcoremt.a(for_rseq_lis.o)
                0x00000000005ce980                for_read_seq_lis
                0x00000000005d03d0                for_read_seq_lis_xmit
                0x00000000005d3000                for__swallow_imaginary_part
 .text          0x00000000005d32d0        0x0 /apps/intel/composer_xe_2013_sp1.2.144/compiler/lib/intel64/libifcoremt.a(cvt__globals.o)
 .text          0x00000000005d32d0      0x7f0 /apps/intel/composer_xe_2013_sp1.2.144/compiler/lib/intel64/libifcoremt.a(cvt_int_to_text.o)
                0x00000000005d32d0                cvt_integer_to_text
                0x00000000005d34d0                cvt_unsigned_to_text
                0x00000000005d36b0                cvt_integer64_to_text
                0x00000000005d38d0                cvt_unsigned64_to_text
 .text          0x00000000005d3ac0      0x7c0 /apps/intel/composer_xe_2013_sp1.2.144/compiler/lib/intel64/libifcoremt.a(cvt_data_to_text.o)
                0x00000000005d3ac0                cvt_data_to_text
                0x00000000005d3ea0                cvt_data64_to_text
 .text          0x00000000005d4280      0x910 /apps/intel/composer_xe_2013_sp1.2.144/compiler/lib/intel64/libifcoremt.a(cvt_log_to_text.o)
                0x00000000005d4280                cvt_boolean_to_text
                0x00000000005d4580                cvt_boolean_to_text_ex
                0x00000000005d48a0                cvt_boolean64_to_text
 .text          0x00000000005d4b90      0x7e0 /apps/intel/composer_xe_2013_sp1.2.144/compiler/lib/intel64/libifcoremt.a(cvt_text_to_int.o)
                0x00000000005d4b90                cvt_text_to_integer
                0x00000000005d4f60                cvt_text_to_unsigned
                0x00000000005d4fb0                cvt_text_to_unsigned64
                0x00000000005d5220                cvt_text_to_integer64
 .text          0x00000000005d5370      0x510 /apps/intel/composer_xe_2013_sp1.2.144/compiler/lib/intel64/libifcoremt.a(cvt_text_to_data.o)
                0x00000000005d5370                cvt_text_to_data
                0x00000000005d5630                cvt_text_to_data64
 .text          0x00000000005d5880      0x220 /apps/intel/composer_xe_2013_sp1.2.144/compiler/lib/intel64/libifcoremt.a(cvt_text_to_log.o)
                0x00000000005d5880                cvt_text_to_boolean
                0x00000000005d5990                cvt_text_to_boolean64
 .text          0x00000000005d5aa0     0x16e0 /apps/intel/composer_xe_2013_sp1.2.144/compiler/lib/intel64/libifcoremt.a(cvt_cvtas_t.o)
                0x00000000005d5aa0                cvt_ieee_t_to_text
                0x00000000005d5af0                cvt_ieee_t_to_text_ex
                0x00000000005d6fe0                cvt_text_to_ieee_t_ex
 .text          0x00000000005d7180     0x2840 /apps/intel/composer_xe_2013_sp1.2.144/compiler/lib/intel64/libifcoremt.a(cvt_cvtas_s.o)
                0x00000000005d7180                cvt_ieee_s_to_text_ex
                0x00000000005d85e0                cvt_ieee_s_to_text
                0x00000000005d9820                cvt_text_to_ieee_s_ex
 .text          0x00000000005d99c0     0x1740 /apps/intel/composer_xe_2013_sp1.2.144/compiler/lib/intel64/libifcoremt.a(cvt_cvtas_x.o)
                0x00000000005d99c0                cvt_ieee_x_to_text
                0x00000000005d9a10                cvt_ieee_x_to_text_ex
                0x00000000005daf60                cvt_text_to_ieee_x_ex
 .text          0x00000000005db100     0x17c0 /apps/intel/composer_xe_2013_sp1.2.144/compiler/lib/intel64/libifcoremt.a(cvtas_a_to_s.o)
                0x00000000005db100                cvtas_a_to_s
 .text          0x00000000005dc8c0     0x2c60 /apps/intel/composer_xe_2013_sp1.2.144/compiler/lib/intel64/libifcoremt.a(cvtas_a_to_t.o)
                0x00000000005dc8c0                cvtas_a_to_t
 .text          0x00000000005df520     0x5100 /apps/intel/composer_xe_2013_sp1.2.144/compiler/lib/intel64/libifcoremt.a(cvtas_s_to_a.o)
                0x00000000005df520                cvtas_s_to_a
 .text          0x00000000005e4620     0x5230 /apps/intel/composer_xe_2013_sp1.2.144/compiler/lib/intel64/libifcoremt.a(cvtas_t_to_a.o)
                0x00000000005e4620                cvtas_t_to_a
 .text          0x00000000005e9850       0xb0 /apps/intel/composer_xe_2013_sp1.2.144/compiler/lib/intel64/libifcoremt.a(cvtas_nan_s.o)
                0x00000000005e9850                cvtas__nan_s
 .text          0x00000000005e9900       0xa0 /apps/intel/composer_xe_2013_sp1.2.144/compiler/lib/intel64/libifcoremt.a(cvtas_nan_t.o)
                0x00000000005e9900                cvtas__nan_t
 .text          0x00000000005e99a0     0x5200 /apps/intel/composer_xe_2013_sp1.2.144/compiler/lib/intel64/libifcoremt.a(cvtas_a_to_x.o)
                0x00000000005e99a0                cvtas_a_to_x
 .text          0x00000000005eeba0     0x5410 /apps/intel/composer_xe_2013_sp1.2.144/compiler/lib/intel64/libifcoremt.a(cvtas_x_to_a.o)
                0x00000000005eeba0                cvtas_x_to_a
 .text          0x00000000005f3fb0       0xd0 /apps/intel/composer_xe_2013_sp1.2.144/compiler/lib/intel64/libifcoremt.a(cvtas_nan_x.o)
                0x00000000005f3fb0                cvtas__nan_x
 .text          0x00000000005f4080        0x0 /apps/intel/composer_xe_2013_sp1.2.144/compiler/lib/intel64/libifcoremt.a(cvtas_globals.o)
 .text          0x00000000005f4080        0x0 /apps/intel/composer_xe_2013_sp1.2.144/compiler/lib/intel64/libifcoremt.a(cvtas_pow_ten_53.o)
 .text          0x00000000005f4080        0x0 /apps/intel/composer_xe_2013_sp1.2.144/compiler/lib/intel64/libifcoremt.a(cvtas_pow_ten_64.o)
 .text          0x00000000005f4080        0x0 /apps/intel/composer_xe_2013_sp1.2.144/compiler/lib/intel64/libifcoremt.a(cvtas_pow_ten_128.o)
 .text          0x00000000005f4080       0x60 /apps/intel/composer_xe_2013_sp1.2.144/compiler/lib/intel64/libimf.a(asinf_stub.o)
                0x00000000005f4080                asinf
 .text          0x00000000005f40e0      0x650 /apps/intel/composer_xe_2013_sp1.2.144/compiler/lib/intel64/libimf.a(asin.o)
                0x00000000005f40e0                asin
 .text          0x00000000005f4730       0x30 /apps/intel/composer_xe_2013_sp1.2.144/compiler/lib/intel64/libimf.a(fetestexcept.o)
                0x00000000005f4730                fetestexcept
 .text          0x00000000005f4760       0x80 /apps/intel/composer_xe_2013_sp1.2.144/compiler/lib/intel64/libimf.a(f__powi4i4.o)
                0x00000000005f4760                __powi4i4
 .text          0x00000000005f47e0       0x60 /apps/intel/composer_xe_2013_sp1.2.144/compiler/lib/intel64/libimf.a(f__powr4i4.o)
                0x00000000005f47e0                __powr4i4
 .text          0x00000000005f4840      0x7f0 /apps/intel/composer_xe_2013_sp1.2.144/compiler/lib/intel64/libimf.a(libm_error.o)
                0x00000000005f4a50                __libm_copy_value
                0x00000000005f4ba0                __libm_error_support
                0x00000000005f4fa0                __libm_setusermatherrl
                0x00000000005f4fd0                __libm_setusermatherr
                0x00000000005f5000                __libm_setusermatherrf
 .text          0x00000000005f5030       0x60 /apps/intel/composer_xe_2013_sp1.2.144/compiler/lib/intel64/libimf.a(log10f_stub.o)
                0x00000000005f5030                log10f
 .text          0x00000000005f5090       0x60 /apps/intel/composer_xe_2013_sp1.2.144/compiler/lib/intel64/libimf.a(log10_stub.o)
                0x00000000005f5090                log10
 .text          0x00000000005f50f0       0x60 /apps/intel/composer_xe_2013_sp1.2.144/compiler/lib/intel64/libimf.a(logf_stub.o)
                0x00000000005f50f0                logf
 .text          0x00000000005f5150       0x10 /apps/intel/composer_xe_2013_sp1.2.144/compiler/lib/intel64/libimf.a(matherrf.o)
                0x00000000005f5150                matherrf
 .text          0x00000000005f5160       0x10 /apps/intel/composer_xe_2013_sp1.2.144/compiler/lib/intel64/libimf.a(matherrl.o)
                0x00000000005f5160                matherrl
 .text          0x00000000005f5170       0x10 /apps/intel/composer_xe_2013_sp1.2.144/compiler/lib/intel64/libimf.a(matherr.o)
                0x00000000005f5170                matherr
 .text          0x00000000005f5180      0x1d0 /apps/intel/composer_xe_2013_sp1.2.144/compiler/lib/intel64/libimf.a(asinf_ct.o)
                0x00000000005f5180                asinf.L
 .text          0x00000000005f5350      0x330 /apps/intel/composer_xe_2013_sp1.2.144/compiler/lib/intel64/libimf.a(asinf_gen.o)
                0x00000000005f5350                asinf.A
 .text          0x00000000005f5680      0x2b0 /apps/intel/composer_xe_2013_sp1.2.144/compiler/lib/intel64/libimf.a(log10_ct.o)
                0x00000000005f5680                log10.L
 .text          0x00000000005f5930      0x1d0 /apps/intel/composer_xe_2013_sp1.2.144/compiler/lib/intel64/libimf.a(log10f_ct.o)
                0x00000000005f5930                log10f.L
 .text          0x00000000005f5b00      0x250 /apps/intel/composer_xe_2013_sp1.2.144/compiler/lib/intel64/libimf.a(log10f_gen.o)
                0x00000000005f5b00                log10f.A
 .text          0x00000000005f5d50      0x2b0 /apps/intel/composer_xe_2013_sp1.2.144/compiler/lib/intel64/libimf.a(log10_gen.o)
                0x00000000005f5d50                log10.A
 .text          0x00000000005f6000      0x1c0 /apps/intel/composer_xe_2013_sp1.2.144/compiler/lib/intel64/libimf.a(logf_ct.o)
                0x00000000005f6000                logf.L
 .text          0x00000000005f61c0      0x210 /apps/intel/composer_xe_2013_sp1.2.144/compiler/lib/intel64/libimf.a(logf_gen.o)
                0x00000000005f61c0                logf.A
 .text          0x00000000005f63d0        0x0 /apps/intel/composer_xe_2013_sp1.2.144/compiler/lib/intel64/libimf.a(logf_table.o)
 .text          0x00000000005f63d0        0x0 /apps/intel/composer_xe_2013_sp1.2.144/compiler/lib/intel64/libimf.a(rcp_table.o)
 .text          0x00000000005f63d0       0xf0 /apps/intel/composer_xe_2013_sp1.2.144/compiler/lib/intel64/libsvml.a(svml_dcos2_la_iface.o)
                0x00000000005f63d0                __svml_cos2
 .text          0x00000000005f64c0      0x990 /apps/intel/composer_xe_2013_sp1.2.144/compiler/lib/intel64/libsvml.a(svml_dcos2_y8la.o)
                0x00000000005f64c0                __svml_cos2_y8
 .text          0x00000000005f6e50       0xf0 /apps/intel/composer_xe_2013_sp1.2.144/compiler/lib/intel64/libsvml.a(svml_sroundf4_la_iface.o)
                0x00000000005f6e50                __svml_roundf4
 .text          0x00000000005f6f40       0x30 /apps/intel/composer_xe_2013_sp1.2.144/compiler/lib/intel64/libsvml.a(svml_sroundf4_y8la.o)
                0x00000000005f6f40                __svml_roundf4_y8
 .text          0x00000000005f6f70      0x230 /apps/intel/composer_xe_2013_sp1.2.144/compiler/lib/intel64/libsvml.a(svml_d_feature_flag_.o)
                0x00000000005f6f70                __svml_feature_flag_init
 .text          0x00000000005f71a0      0x990 /apps/intel/composer_xe_2013_sp1.2.144/compiler/lib/intel64/libsvml.a(svml_dcos2_e7la.o)
                0x00000000005f71a0                __svml_cos2_e7
 .text          0x00000000005f7b30      0x990 /apps/intel/composer_xe_2013_sp1.2.144/compiler/lib/intel64/libsvml.a(svml_dcos2_exla.o)
                0x00000000005f7b30                __svml_cos2_ex
 .text          0x00000000005f84c0      0x9a0 /apps/intel/composer_xe_2013_sp1.2.144/compiler/lib/intel64/libsvml.a(svml_dcos2_h9la.o)
                0x00000000005f84c0                __svml_cos2_h9
 .text          0x00000000005f8e60        0x0 /apps/intel/composer_xe_2013_sp1.2.144/compiler/lib/intel64/libsvml.a(svml_s_round_data_exla.o)
 .text          0x00000000005f8e60       0x50 /apps/intel/composer_xe_2013_sp1.2.144/compiler/lib/intel64/libsvml.a(svml_sroundf4_e7la.o)
                0x00000000005f8e60                __svml_roundf4_e7
 .text          0x00000000005f8eb0       0x90 /apps/intel/composer_xe_2013_sp1.2.144/compiler/lib/intel64/libsvml.a(svml_sroundf4_exla.o)
                0x00000000005f8eb0                __svml_roundf4_ex
 .text          0x00000000005f8f40       0x60 /apps/intel/composer_xe_2013_sp1.2.144/compiler/lib/intel64/libsvml.a(svml_sroundf4_h9la.o)
                0x00000000005f8f40                __svml_roundf4_h9
 .text          0x00000000005f8fa0      0x4e0 /apps/intel/composer_xe_2013_sp1.2.144/compiler/lib/intel64/libirc.a(q2ints.o)
                0x00000000005f8fa0                __qtoj
                0x00000000005f9150                __qtok
                0x00000000005f9260                __qtoi
                0x00000000005f93a0                __qtou
 .text          0x00000000005f9480      0x540 /apps/intel/composer_xe_2013_sp1.2.144/compiler/lib/intel64/libirc.a(tbk_display.o)
                0x00000000005f9480                tbk_string_stack_signal
 .text          0x00000000005f99c0     0x1440 /apps/intel/composer_xe_2013_sp1.2.144/compiler/lib/intel64/libirc.a(tbk_backtrace.o)
                0x00000000005f99c0                tbk_getPC
                0x00000000005f99d0                tbk_getRetAddr
                0x00000000005f99e0                tbk_getFramePtr
                0x00000000005f99f0                tbk_getModuleName
                0x00000000005f9d10                tbk_get_pc_info
                0x00000000005fa8e0                tbk_geterrorstring
                0x00000000005faab0                tbk_trace_stack
 .text          0x00000000005fae00      0x3d0 /apps/intel/composer_xe_2013_sp1.2.144/compiler/lib/intel64/libirc.a(cpu_feature_disp.o)
                0x00000000005fae00                __intel_cpu_features_init_x
                0x00000000005fae20                __intel_cpu_features_init
 .text          0x00000000005fb1d0      0x130 /apps/intel/composer_xe_2013_sp1.2.144/compiler/lib/intel64/libirc.a(ia32_memcmp.o)
                0x00000000005fb1d0                _intel_fast_memcmp
 .text          0x00000000005fb300       0xb0 /apps/intel/composer_xe_2013_sp1.2.144/compiler/lib/intel64/libirc.a(fastmemcpy.o)
                0x00000000005fb300                _intel_fast_memcpy.A
                0x00000000005fb310                _intel_fast_memcpy.J
                0x00000000005fb320                _intel_fast_memcpy.M
                0x00000000005fb330                _intel_fast_memcpy.P
                0x00000000005fb340                _intel_fast_memcpy
 .text          0x00000000005fb3b0       0x90 /apps/intel/composer_xe_2013_sp1.2.144/compiler/lib/intel64/libirc.a(fastmemmove.o)
                0x00000000005fb3b0                _intel_fast_memmove.A
                0x00000000005fb3c0                _intel_fast_memmove.M
                0x00000000005fb3d0                _intel_fast_memmove.P
                0x00000000005fb3e0                _intel_fast_memmove
 .text          0x00000000005fb440       0x60 /apps/intel/composer_xe_2013_sp1.2.144/compiler/lib/intel64/libirc.a(fastmemset.o)
                0x00000000005fb440                _intel_fast_memset.A
                0x00000000005fb450                _intel_fast_memset.J
                0x00000000005fb460                _intel_fast_memset
 .text          0x00000000005fb4a0      0x380 /apps/intel/composer_xe_2013_sp1.2.144/compiler/lib/intel64/libirc.a(new_proc_init.o)
                0x00000000005fb4a0                __intel_new_feature_proc_init
 .text          0x00000000005fb820      0x440 /apps/intel/composer_xe_2013_sp1.2.144/compiler/lib/intel64/libirc.a(sse2_strcspn.o)
                0x00000000005fb820                __intel_sse2_strcspn
 .text          0x00000000005fbc60      0x130 /apps/intel/composer_xe_2013_sp1.2.144/compiler/lib/intel64/libirc.a(sse2_strcpy.o)
                0x00000000005fbc60                __intel_sse2_strcpy
 .text          0x00000000005fbd90      0x1a0 /apps/intel/composer_xe_2013_sp1.2.144/compiler/lib/intel64/libirc.a(sse2_strncpy.o)
                0x00000000005fbd90                __intel_sse2_strncpy
 .text          0x00000000005fbf30       0x30 /apps/intel/composer_xe_2013_sp1.2.144/compiler/lib/intel64/libirc.a(sse2_strlen.o)
                0x00000000005fbf30                __intel_sse2_strlen
 .text          0x00000000005fbf60       0x40 /apps/intel/composer_xe_2013_sp1.2.144/compiler/lib/intel64/libirc.a(sse2_strchr.o)
                0x00000000005fbf60                __intel_sse2_strchr
 .text          0x00000000005fbfa0      0x2e0 /apps/intel/composer_xe_2013_sp1.2.144/compiler/lib/intel64/libirc.a(sse2_strncmp.o)
                0x00000000005fbfa0                __intel_sse2_strncmp
 .text          0x00000000005fc280      0x280 /apps/intel/composer_xe_2013_sp1.2.144/compiler/lib/intel64/libirc.a(sse2_strcat.o)
                0x00000000005fc280                __intel_sse2_strcat
 .text          0x00000000005fc500      0x300 /apps/intel/composer_xe_2013_sp1.2.144/compiler/lib/intel64/libirc.a(sse2_strncat.o)
                0x00000000005fc500                __intel_sse2_strncat
 .text          0x00000000005fc800     0x17b0 /apps/intel/composer_xe_2013_sp1.2.144/compiler/lib/intel64/libirc.a(fast_memcpy_pp.o)
                0x00000000005fc800                __intel_memcpy
                0x00000000005fc800                __intel_new_memcpy
 .text          0x00000000005fdfb0     0x11e0 /apps/intel/composer_xe_2013_sp1.2.144/compiler/lib/intel64/libirc.a(fast_memset_pp.o)
                0x00000000005fdfb0                __intel_memset
                0x00000000005fdfb0                __intel_new_memset
 .text          0x00000000005ff190        0x0 /apps/intel/composer_xe_2013_sp1.2.144/compiler/lib/intel64/libirc.a(intel_ssse3_memcpy.o)
 .text.ssse3    0x00000000005ff190     0x29c5 /apps/intel/composer_xe_2013_sp1.2.144/compiler/lib/intel64/libirc.a(intel_ssse3_memcpy.o)
                0x00000000005ff190                __intel_ssse3_memcpy
 *fill*         0x0000000000601b55        0x3 
 .text          0x0000000000601b58        0x0 /apps/intel/composer_xe_2013_sp1.2.144/compiler/lib/intel64/libirc.a(intel_ssse3_rep_memcpy.o)
 *fill*         0x0000000000601b58        0x8 
 .text.ssse3    0x0000000000601b60     0x2ab6 /apps/intel/composer_xe_2013_sp1.2.144/compiler/lib/intel64/libirc.a(intel_ssse3_rep_memcpy.o)
                0x0000000000601b60                __intel_ssse3_rep_memcpy
 *fill*         0x0000000000604616        0x2 
 .text          0x0000000000604618        0x0 /apps/intel/composer_xe_2013_sp1.2.144/compiler/lib/intel64/libirc.a(intel_ssse3_memmove.o)
 *fill*         0x0000000000604618        0x8 
 .text.ssse3    0x0000000000604620     0x2b76 /apps/intel/composer_xe_2013_sp1.2.144/compiler/lib/intel64/libirc.a(intel_ssse3_memmove.o)
                0x0000000000604620                __intel_ssse3_memmove
 *fill*         0x0000000000607196        0x2 
 .text          0x0000000000607198        0x0 /apps/intel/composer_xe_2013_sp1.2.144/compiler/lib/intel64/libirc.a(intel_ssse3_rep_memmove.o)
 *fill*         0x0000000000607198        0x8 
 .text.ssse3    0x00000000006071a0     0x2af6 /apps/intel/composer_xe_2013_sp1.2.144/compiler/lib/intel64/libirc.a(intel_ssse3_rep_memmove.o)
                0x00000000006071a0                __intel_ssse3_rep_memmove
 *fill*         0x0000000000609c96        0xa 
 .text          0x0000000000609ca0      0x4e0 /apps/intel/composer_xe_2013_sp1.2.144/compiler/lib/intel64/libirc.a(irc_msg_support.o)
                0x0000000000609ca0                __libirc_get_msg
                0x0000000000609ed0                __libirc_print
 .text          0x000000000060a180      0xbf0 /apps/intel/composer_xe_2013_sp1.2.144/compiler/lib/intel64/libirc.a(fast_mem_ops.o)
                0x000000000060a180                __cacheSize
 .text          0x000000000060ad70       0xb0 /apps/intel/composer_xe_2013_sp1.2.144/compiler/lib/intel64/libirc.a(proc_init_utils.o)
                0x000000000060ad70                __intel_proc_init_ftzdazule
 .text          0x000000000060ae20       0x72 /usr/lib64/libc_nonshared.a(elf-init.oS)
                0x000000000060ae20                __libc_csu_init
                0x000000000060ae90                __libc_csu_fini
 .text          0x000000000060ae92        0x0 /usr/lib/gcc/x86_64-redhat-linux/4.8.5/crtend.o
 .text          0x000000000060ae92        0x0 /usr/lib/gcc/x86_64-redhat-linux/4.8.5/../../../../lib64/crtn.o
 *(.gnu.warning)

.fini           0x000000000060ae94        0x9
 *(SORT(.fini))
 .fini          0x000000000060ae94        0x4 /usr/lib/gcc/x86_64-redhat-linux/4.8.5/../../../../lib64/crti.o
                0x000000000060ae94                _fini
 .fini          0x000000000060ae98        0x5 /usr/lib/gcc/x86_64-redhat-linux/4.8.5/../../../../lib64/crtn.o
                [!provide]                        PROVIDE (__etext, .)
                [!provide]                        PROVIDE (_etext, .)
                [!provide]                        PROVIDE (etext, .)

.rodata         0x000000000060aec0    0xaa240
 *(.rodata .rodata.* .gnu.linkonce.r.*)
 .rodata.cst4   0x000000000060aec0        0x4 /usr/lib/gcc/x86_64-redhat-linux/4.8.5/../../../../lib64/crt1.o
                0x000000000060aec0                _IO_stdin_used
 *fill*         0x000000000060aec4        0x4 
 .rodata        0x000000000060aec8        0x8 /usr/lib/gcc/x86_64-redhat-linux/4.8.5/crtbegin.o
                0x000000000060aec8                __dso_handle
 .rodata        0x000000000060aed0       0xa0 constants.o
 .rodata        0x000000000060af70       0x9c namelist_def.o
 .rodata.str1.4
                0x000000000060b00c       0xf7 namelist_def.o
                                        0x190 (size before relaxing)
 *fill*         0x000000000060b103        0xd 
 .rodata        0x000000000060b110       0x20 variable_interface.o
 .rodata.str1.4
                0x000000000060b130       0x61 variable_interface.o
                                        0x108 (size before relaxing)
 *fill*         0x000000000060b191        0x3 
 .rodata.str1.4
                0x000000000060b194        0x6 gfs_nems_interface.o
                                         0x28 (size before relaxing)
 *fill*         0x000000000060b19a        0x6 
 .rodata        0x000000000060b1a0      0x180 gfs_nems_interface.o
 .rodata.str1.4
                0x000000000060b320      0x2c3 fv3_interface.o
                                        0x6cc (size before relaxing)
 *fill*         0x000000000060b5e3       0x1d 
 .rodata        0x000000000060b600      0x400 fv3_interface.o
 .rodata        0x000000000060ba00       0xd8 /tmp/ifort3qcMiK.o
 .rodata.str1.4
                0x000000000060bad8      0x10e /tmp/ifort3qcMiK.o
                                        0x12c (size before relaxing)
 *fill*         0x000000000060bbe6        0x2 
 .rodata.str1.4
                0x000000000060bbe8     0x2129 /scratch3/NCEPDEV/nwprod/lib/nemsio/v2.2.1/libnemsio_v2.2.1.a(nemsio_openclose.o)
                                       0x4e30 (size before relaxing)
 *fill*         0x000000000060dd11        0xf 
 .rodata        0x000000000060dd20      0x9e0 /scratch3/NCEPDEV/nwprod/lib/nemsio/v2.2.1/libnemsio_v2.2.1.a(nemsio_openclose.o)
 .rodata.str1.32
                0x000000000060e700      0x236 /scratch3/NCEPDEV/nwprod/lib/nemsio/v2.2.1/libnemsio_v2.2.1.a(nemsio_openclose.o)
                                        0x240 (size before relaxing)
 *fill*         0x000000000060e936        0x2 
 .rodata.str1.4
                0x000000000060e938       0x4e /scratch3/NCEPDEV/nwprod/lib/nemsio/v2.2.1/libnemsio_v2.2.1.a(nemsio_read.o)
                                        0x208 (size before relaxing)
 *fill*         0x000000000060e986        0x2 
 .rodata        0x000000000060e988       0x58 /scratch3/NCEPDEV/nwprod/lib/nemsio/v2.2.1/libnemsio_v2.2.1.a(nemsio_read.o)
 .rodata.str1.4
                0x000000000060e9e0       0x6a /scratch3/NCEPDEV/nwprod/lib/nemsio/v2.2.1/libnemsio_v2.2.1.a(nemsio_write.o)
                                        0x250 (size before relaxing)
 *fill*         0x000000000060ea4a        0x6 
 .rodata        0x000000000060ea50      0x3e0 /scratch3/NCEPDEV/nwprod/lib/nemsio/v2.2.1/libnemsio_v2.2.1.a(nemsio_write.o)
 .rodata        0x000000000060ee30       0x70 /scratch3/NCEPDEV/nwprod/lib/bacio/v2.0.1/libbacio_v2.0.1_4.a(baciof.o)
 .rodata.str1.32
                0x000000000060eea0       0xb7 /scratch3/NCEPDEV/nwprod/lib/bacio/v2.0.1/libbacio_v2.0.1_4.a(baciof.o)
                                         0xc0 (size before relaxing)
 *fill*         0x000000000060ef57        0x1 
 .rodata.str1.4
                0x000000000060ef58       0x33 /scratch3/NCEPDEV/nwprod/lib/bacio/v2.0.1/libbacio_v2.0.1_4.a(baciof.o)
                                         0x34 (size before relaxing)
 *fill*         0x000000000060ef8b        0x1 
 .rodata.str1.4
                0x000000000060ef8c       0x2a /scratch3/NCEPDEV/nwprod/lib/bacio/v2.0.1/libbacio_v2.0.1_4.a(bafrio.o)
                                         0x9c (size before relaxing)
 *fill*         0x000000000060efb6        0x2 
 .rodata        0x000000000060efb8       0x28 /scratch3/NCEPDEV/nwprod/lib/bacio/v2.0.1/libbacio_v2.0.1_4.a(bafrio.o)
 .rodata.str1.32
                0x000000000060efe0       0xc8 /scratch3/NCEPDEV/nwprod/lib/bacio/v2.0.1/libbacio_v2.0.1_4.a(bafrio.o)
                                         0xe0 (size before relaxing)
 .rodata.str1.4
                0x000000000060f0a8        0xd /scratch3/NCEPDEV/nwprod/lib/bacio/v2.0.1/libbacio_v2.0.1_4.a(chk_endianc.o)
                                         0x3c (size before relaxing)
 *fill*         0x000000000060f0b5        0xb 
 .rodata        0x000000000060f0c0       0x10 /scratch3/NCEPDEV/nwprod/lib/bacio/v2.0.1/libbacio_v2.0.1_4.a(chk_endianc.o)
 .rodata.str1.4
                0x000000000060f0d0       0x2e /scratch3/NCEPDEV/nwprod/lib/bacio/v2.0.1/libbacio_v2.0.1_4.a(bacio.o)
                                         0xc0 (size before relaxing)
 *fill*         0x000000000060f0fe        0x2 
 .rodata        0x000000000060f100        0x8 /scratch3/NCEPDEV/nwprod/lib/w3nco/v2.0.6/libw3nco_v2.0.6_4.a(getgbm.o)
 .rodata        0x000000000060f108       0x20 /scratch3/NCEPDEV/nwprod/lib/w3nco/v2.0.6/libw3nco_v2.0.6_4.a(getgi.o)
 .rodata.str1.4
                0x000000000060f128        0x7 /scratch3/NCEPDEV/nwprod/lib/w3nco/v2.0.6/libw3nco_v2.0.6_4.a(getgi.o)
                                          0x8 (size before relaxing)
 *fill*         0x000000000060f12f        0x1 
 .rodata        0x000000000060f130        0x8 /scratch3/NCEPDEV/nwprod/lib/w3nco/v2.0.6/libw3nco_v2.0.6_4.a(getgir.o)
 .rodata        0x000000000060f138       0x20 /scratch3/NCEPDEV/nwprod/lib/w3nco/v2.0.6/libw3nco_v2.0.6_4.a(ixgb.o)
 *fill*         0x000000000060f158        0x8 
 .rodata        0x000000000060f160       0x30 /scratch3/NCEPDEV/nwprod/lib/w3nco/v2.0.6/libw3nco_v2.0.6_4.a(putgben.o)
 .rodata        0x000000000060f190        0x8 /scratch3/NCEPDEV/nwprod/lib/w3nco/v2.0.6/libw3nco_v2.0.6_4.a(sbytec.o)
 *fill*         0x000000000060f198        0x8 
 .rodata        0x000000000060f1a0       0x20 /scratch3/NCEPDEV/nwprod/lib/w3nco/v2.0.6/libw3nco_v2.0.6_4.a(sbytesc.o)
 .rodata        0x000000000060f1c0       0x14 /scratch3/NCEPDEV/nwprod/lib/w3nco/v2.0.6/libw3nco_v2.0.6_4.a(skgb.o)
 *fill*         0x000000000060f1d4        0xc 
 .rodata        0x000000000060f1e0      0x460 /scratch3/NCEPDEV/nwprod/lib/w3nco/v2.0.6/libw3nco_v2.0.6_4.a(w3fi68.o)
 .rodata        0x000000000060f640        0x8 /scratch3/NCEPDEV/nwprod/lib/w3nco/v2.0.6/libw3nco_v2.0.6_4.a(w3fi72.o)
 .rodata        0x000000000060f648       0x1c /scratch3/NCEPDEV/nwprod/lib/w3nco/v2.0.6/libw3nco_v2.0.6_4.a(w3fi73.o)
 *fill*         0x000000000060f664       0x1c 
 .rodata        0x000000000060f680      0x180 /scratch3/NCEPDEV/nwprod/lib/w3nco/v2.0.6/libw3nco_v2.0.6_4.a(w3fi75.o)
 .rodata        0x000000000060f800       0x50 /scratch3/NCEPDEV/nwprod/lib/w3nco/v2.0.6/libw3nco_v2.0.6_4.a(w3fi76.o)
 .rodata.str1.4
                0x000000000060f850       0x1f /scratch3/NCEPDEV/nwprod/lib/w3nco/v2.0.6/libw3nco_v2.0.6_4.a(w3fi76.o)
                                         0x20 (size before relaxing)
 *fill*         0x000000000060f86f        0x1 
 .rodata        0x000000000060f870        0x8 /scratch3/NCEPDEV/nwprod/lib/w3nco/v2.0.6/libw3nco_v2.0.6_4.a(w3fi82.o)
 .rodata        0x000000000060f878        0x8 /scratch3/NCEPDEV/nwprod/lib/w3nco/v2.0.6/libw3nco_v2.0.6_4.a(gbytec.o)
 .rodata        0x000000000060f880       0x20 /scratch3/NCEPDEV/nwprod/lib/w3nco/v2.0.6/libw3nco_v2.0.6_4.a(gbytesc.o)
 .rodata        0x000000000060f8a0       0x24 /scratch3/NCEPDEV/nwprod/lib/w3nco/v2.0.6/libw3nco_v2.0.6_4.a(getbit.o)
 .rodata        0x000000000060f8c4        0x4 /scratch3/NCEPDEV/nwprod/lib/w3nco/v2.0.6/libw3nco_v2.0.6_4.a(getgb1r.o)
 .rodata        0x000000000060f8c8       0x14 /scratch3/NCEPDEV/nwprod/lib/w3nco/v2.0.6/libw3nco_v2.0.6_4.a(getgb1s.o)
 .rodata        0x000000000060f8dc       0x40 /scratch3/NCEPDEV/nwprod/lib/w3nco/v2.0.6/libw3nco_v2.0.6_4.a(pdsens.o)
 .rodata        0x000000000060f91c       0x50 /scratch3/NCEPDEV/nwprod/lib/w3nco/v2.0.6/libw3nco_v2.0.6_4.a(pdseup.o)
 .rodata        0x000000000060f96c       0x10 /scratch3/NCEPDEV/nwprod/lib/w3nco/v2.0.6/libw3nco_v2.0.6_4.a(w3fi58.o)
 .rodata        0x000000000060f97c       0x20 /scratch3/NCEPDEV/nwprod/lib/w3nco/v2.0.6/libw3nco_v2.0.6_4.a(w3fi59.o)
 *fill*         0x000000000060f99c        0x4 
 .rodata        0x000000000060f9a0       0xd0 /scratch3/NCEPDEV/nwprod/lib/w3nco/v2.0.6/libw3nco_v2.0.6_4.a(w3fi63.o)
 *fill*         0x000000000060fa70       0x10 
 .rodata        0x000000000060fa80     0x45c0 /scratch3/NCEPDEV/nwprod/lib/w3nco/v2.0.6/libw3nco_v2.0.6_4.a(w3fi71.o)
 .rodata        0x0000000000614040       0x20 /scratch3/NCEPDEV/nwprod/lib/w3nco/v2.0.6/libw3nco_v2.0.6_4.a(w3fi83.o)
 .rodata        0x0000000000614060      0x134 /apps/netcdf/3.6.3-intel/lib/libnetcdf.a(netcdf.o)
 .rodata.str1.1
                0x0000000000614194       0xa5 /apps/netcdf/3.6.3-intel/lib/libnetcdf.a(attr.o)
 *fill*         0x0000000000614239        0x7 
 .rodata.str1.8
                0x0000000000614240      0x288 /apps/netcdf/3.6.3-intel/lib/libnetcdf.a(attr.o)
 *fill*         0x00000000006144c8        0x8 
 .rodata        0x00000000006144d0      0x6c2 /apps/netcdf/3.6.3-intel/lib/libnetcdf.a(attr.o)
 .rodata.str1.1
                0x0000000000614b92       0x1a /apps/netcdf/3.6.3-intel/lib/libnetcdf.a(ncx.o)
 *fill*         0x0000000000614bac        0x4 
 .rodata.str1.8
                0x0000000000614bb0       0x27 /apps/netcdf/3.6.3-intel/lib/libnetcdf.a(ncx.o)
 .rodata        0x0000000000614bd7       0x2f /apps/netcdf/3.6.3-intel/lib/libnetcdf.a(ncx.o)
 *fill*         0x0000000000614c06        0x2 
 .rodata.cst4   0x0000000000614c08       0x2c /apps/netcdf/3.6.3-intel/lib/libnetcdf.a(ncx.o)
 *fill*         0x0000000000614c34        0x4 
 .rodata.cst8   0x0000000000614c38       0x70 /apps/netcdf/3.6.3-intel/lib/libnetcdf.a(ncx.o)
 *fill*         0x0000000000614ca8        0x8 
 .rodata        0x0000000000614cb0     0x1058 /apps/netcdf/3.6.3-intel/lib/libnetcdf.a(putget.o)
 .rodata.str1.1
                0x0000000000615d08       0xc1 /apps/netcdf/3.6.3-intel/lib/libnetcdf.a(putget.o)
                                         0xd6 (size before relaxing)
 *fill*         0x0000000000615dc9        0x7 
 .rodata.str1.8
                0x0000000000615dd0      0x11d /apps/netcdf/3.6.3-intel/lib/libnetcdf.a(putget.o)
 .rodata.str1.1
                0x0000000000615eed        0x6 /apps/netcdf/3.6.3-intel/lib/libnetcdf.a(dim.o)
                                         0x76 (size before relaxing)
 *fill*         0x0000000000615ef3        0xd 
 .rodata        0x0000000000615f00       0xb0 /apps/netcdf/3.6.3-intel/lib/libnetcdf.a(dim.o)
 .rodata.str1.8
                0x0000000000615fb0      0x3ac /apps/netcdf/3.6.3-intel/lib/libnetcdf.a(error.o)
 .rodata.str1.1
                0x000000000061635c      0x14f /apps/netcdf/3.6.3-intel/lib/libnetcdf.a(error.o)
 *fill*         0x00000000006164ab       0x15 
 .rodata        0x00000000006164c0      0x208 /apps/netcdf/3.6.3-intel/lib/libnetcdf.a(error.o)
 *fill*         0x00000000006166c8       0x18 
 .rodata        0x00000000006166e0       0x43 /apps/netcdf/3.6.3-intel/lib/libnetcdf.a(libvers.o)
 .rodata.str1.1
                0x0000000000616723       0xec /apps/netcdf/3.6.3-intel/lib/libnetcdf.a(nc.o)
 *fill*         0x000000000061680f        0x1 
 .rodata        0x0000000000616810       0xfc /apps/netcdf/3.6.3-intel/lib/libnetcdf.a(nc.o)
 *fill*         0x000000000061690c        0x4 
 .rodata.str1.8
                0x0000000000616910      0x114 /apps/netcdf/3.6.3-intel/lib/libnetcdf.a(nc.o)
 .rodata.str1.1
                0x0000000000616a24       0x37 /apps/netcdf/3.6.3-intel/lib/libnetcdf.a(string.o)
 *fill*         0x0000000000616a5b        0x5 
 .rodata.str1.8
                0x0000000000616a60       0x20 /apps/netcdf/3.6.3-intel/lib/libnetcdf.a(string.o)
 .rodata        0x0000000000616a80       0x2a /apps/netcdf/3.6.3-intel/lib/libnetcdf.a(string.o)
 .rodata.str1.1
                0x0000000000616aaa       0xd6 /apps/netcdf/3.6.3-intel/lib/libnetcdf.a(v1hpg.o)
                                         0xfd (size before relaxing)
 .rodata.str1.8
                0x0000000000616b80      0x160 /apps/netcdf/3.6.3-intel/lib/libnetcdf.a(v1hpg.o)
 .rodata        0x0000000000616ce0      0x12f /apps/netcdf/3.6.3-intel/lib/libnetcdf.a(v1hpg.o)
 .rodata.str1.1
                0x0000000000616e0f       0x23 /apps/netcdf/3.6.3-intel/lib/libnetcdf.a(var.o)
                                         0x93 (size before relaxing)
 *fill*         0x0000000000616e32        0xe 
 .rodata        0x0000000000616e40       0xe3 /apps/netcdf/3.6.3-intel/lib/libnetcdf.a(var.o)
 *fill*         0x0000000000616f23        0x5 
 .rodata.str1.8
                0x0000000000616f28      0x109 /apps/netcdf/3.6.3-intel/lib/libnetcdf.a(utf8proc.o)
 *fill*         0x0000000000617031        0xf 
 .rodata        0x0000000000617040    0x7b988 /apps/netcdf/3.6.3-intel/lib/libnetcdf.a(utf8proc.o)
                0x0000000000617040                utf8proc_sequences
                0x0000000000622400                utf8proc_stage1table
                0x0000000000624600                utf8proc_stage2table
                0x000000000062fc00                utf8proc_properties
                0x000000000067c900                utf8proc_combinations
                0x00000000006928a0                utf8proc_utf8class
 .rodata.str1.1
                0x00000000006929c8       0x15 /apps/netcdf/3.6.3-intel/lib/libnetcdf.a(utf8proc.o)
 .rodata.str1.1
                0x00000000006929dd      0x132 /apps/netcdf/3.6.3-intel/lib/libnetcdf.a(posixio.o)
 *fill*         0x0000000000692b0f        0x1 
 .rodata.str1.8
                0x0000000000692b10       0xf0 /apps/netcdf/3.6.3-intel/lib/libnetcdf.a(posixio.o)
                                         0xe9 (size before relaxing)
 .rodata        0x0000000000692c00       0x71 /apps/netcdf/3.6.3-intel/lib/libnetcdf.a(posixio.o)
 *fill*         0x0000000000692c71        0x3 
 .rodata.str1.4
                0x0000000000692c74        0x8 /apps/intel/composer_xe_2013_sp1.2.144/compiler/lib/intel64/libifcoremt.a(for_close.o)
 *fill*         0x0000000000692c7c        0x4 
 .rodata        0x0000000000692c80       0x48 /apps/intel/composer_xe_2013_sp1.2.144/compiler/lib/intel64/libifcoremt.a(for_close_proc.o)
 .rodata.str1.4
                0x0000000000692cc8       0x68 /apps/intel/composer_xe_2013_sp1.2.144/compiler/lib/intel64/libifcoremt.a(for_close_proc.o)
 *fill*         0x0000000000692d30       0x10 
 .rodata        0x0000000000692d40      0x7c0 /apps/intel/composer_xe_2013_sp1.2.144/compiler/lib/intel64/libifcoremt.a(for_contig_array.o)
 .rodata.str1.4
                0x0000000000693500       0x17 /apps/intel/composer_xe_2013_sp1.2.144/compiler/lib/intel64/libifcoremt.a(for_contig_array.o)
                                         0x18 (size before relaxing)
 *fill*         0x0000000000693517        0x9 
 .rodata        0x0000000000693520      0x220 /apps/intel/composer_xe_2013_sp1.2.144/compiler/lib/intel64/libifcoremt.a(for_desc_item.o)
                0x00000000006936a0                for__dsc_itm_table
 .rodata.str1.4
                0x0000000000693740       0x10 /apps/intel/composer_xe_2013_sp1.2.144/compiler/lib/intel64/libifcoremt.a(for_desc_item.o)
 .rodata.str1.4
                0x0000000000693750     0x3b56 /apps/intel/composer_xe_2013_sp1.2.144/compiler/lib/intel64/libifcoremt.a(for_diags_intel.o)
                                       0x3bd0 (size before relaxing)
 *fill*         0x00000000006972a6       0x1a 
 .rodata        0x00000000006972c0      0x400 /apps/intel/composer_xe_2013_sp1.2.144/compiler/lib/intel64/libifcoremt.a(for_diags_intel.o)
 .rodata.str1.32
                0x00000000006976c0     0x1444 /apps/intel/composer_xe_2013_sp1.2.144/compiler/lib/intel64/libifcoremt.a(for_diags_intel.o)
                                       0x1460 (size before relaxing)
 .rodata.str1.4
                0x0000000000698b04       0x13 /apps/intel/composer_xe_2013_sp1.2.144/compiler/lib/intel64/libifcoremt.a(for_exit_handler.o)
                                         0x14 (size before relaxing)
 *fill*         0x0000000000698b17        0x1 
 .rodata.str1.4
                0x0000000000698b18       0xd0 /apps/intel/composer_xe_2013_sp1.2.144/compiler/lib/intel64/libifcoremt.a(for_init.o)
 *fill*         0x0000000000698be8       0x18 
 .rodata        0x0000000000698c00      0x3a0 /apps/intel/composer_xe_2013_sp1.2.144/compiler/lib/intel64/libifcoremt.a(for_init.o)
 .rodata.str1.32
                0x0000000000698fa0     0x1ecd /apps/intel/composer_xe_2013_sp1.2.144/compiler/lib/intel64/libifcoremt.a(for_init.o)
                                       0x1ee0 (size before relaxing)
 *fill*         0x000000000069ae6d        0x3 
 .rodata.str1.4
                0x000000000069ae70      0x17e /apps/intel/composer_xe_2013_sp1.2.144/compiler/lib/intel64/libifcoremt.a(for_inquire.o)
                                        0x1a0 (size before relaxing)
 *fill*         0x000000000069afee       0x12 
 .rodata        0x000000000069b000      0x5a0 /apps/intel/composer_xe_2013_sp1.2.144/compiler/lib/intel64/libifcoremt.a(for_inquire.o)
 .rodata        0x000000000069b5a0      0x3c0 /apps/intel/composer_xe_2013_sp1.2.144/compiler/lib/intel64/libifcoremt.a(for_io_util.o)
 .rodata.str1.4
                0x000000000069b960        0x3 /apps/intel/composer_xe_2013_sp1.2.144/compiler/lib/intel64/libifcoremt.a(for_io_util.o)
                                          0x4 (size before relaxing)
 *fill*         0x000000000069b963       0x1d 
 .rodata        0x000000000069b980      0x180 /apps/intel/composer_xe_2013_sp1.2.144/compiler/lib/intel64/libifcoremt.a(for_lub_mgt.o)
 .rodata.str1.4
                0x000000000069bb00        0xe /apps/intel/composer_xe_2013_sp1.2.144/compiler/lib/intel64/libifcoremt.a(for_lub_mgt.o)
                                         0x10 (size before relaxing)
 *fill*         0x000000000069bb0e       0x12 
 .rodata        0x000000000069bb20       0x60 /apps/intel/composer_xe_2013_sp1.2.144/compiler/lib/intel64/libifcoremt.a(for_need_lf.o)
 .rodata.str1.4
                0x000000000069bb80      0x271 /apps/intel/composer_xe_2013_sp1.2.144/compiler/lib/intel64/libifcoremt.a(for_open.o)
                                        0x400 (size before relaxing)
 *fill*         0x000000000069bdf1        0xf 
 .rodata        0x000000000069be00     0x1a00 /apps/intel/composer_xe_2013_sp1.2.144/compiler/lib/intel64/libifcoremt.a(for_open.o)
 .rodata.str1.4
                0x000000000069d800        0x7 /apps/intel/composer_xe_2013_sp1.2.144/compiler/lib/intel64/libifcoremt.a(for_preconnected_units_init.o)
                                          0x8 (size before relaxing)
 *fill*         0x000000000069d807       0x19 
 .rodata        0x000000000069d820      0x240 /apps/intel/composer_xe_2013_sp1.2.144/compiler/lib/intel64/libifcoremt.a(for_put.o)
 .rodata.str1.4
                0x000000000069da60        0xa /apps/intel/composer_xe_2013_sp1.2.144/compiler/lib/intel64/libifcoremt.a(for_put.o)
                                          0xc (size before relaxing)
 *fill*         0x000000000069da6a       0x16 
 .rodata        0x000000000069da80       0x80 /apps/intel/composer_xe_2013_sp1.2.144/compiler/lib/intel64/libifcoremt.a(for_reentrancy.o)
 .rodata.str1.4
                0x000000000069db00       0x4c /apps/intel/composer_xe_2013_sp1.2.144/compiler/lib/intel64/libifcoremt.a(for_rint_fmt.o)
                                         0x5c (size before relaxing)
 *fill*         0x000000000069db4c       0x14 
 .rodata        0x000000000069db60      0x2a0 /apps/intel/composer_xe_2013_sp1.2.144/compiler/lib/intel64/libifcoremt.a(for_rint_fmt.o)
 .rodata.str1.4
                0x000000000069de00       0x37 /apps/intel/composer_xe_2013_sp1.2.144/compiler/lib/intel64/libifcoremt.a(for_rseq_nml.o)
                                         0x44 (size before relaxing)
 *fill*         0x000000000069de37        0x9 
 .rodata        0x000000000069de40     0x1d00 /apps/intel/composer_xe_2013_sp1.2.144/compiler/lib/intel64/libifcoremt.a(for_rseq_nml.o)
 .rodata.str1.4
                0x000000000069fb40        0xb /apps/intel/composer_xe_2013_sp1.2.144/compiler/lib/intel64/libifcoremt.a(for_stop.o)
                                         0x14 (size before relaxing)
 *fill*         0x000000000069fb4b       0x15 
 .rodata        0x000000000069fb60      0x200 /apps/intel/composer_xe_2013_sp1.2.144/compiler/lib/intel64/libifcoremt.a(for_stop.o)
 .rodata.str1.4
                0x000000000069fd60       0x4d /apps/intel/composer_xe_2013_sp1.2.144/compiler/lib/intel64/libifcoremt.a(for_wint_fmt.o)
                                         0x60 (size before relaxing)
 *fill*         0x000000000069fdad       0x13 
 .rodata        0x000000000069fdc0      0x240 /apps/intel/composer_xe_2013_sp1.2.144/compiler/lib/intel64/libifcoremt.a(for_wint_fmt.o)
 .rodata.str1.4
                0x00000000006a0000        0xb /apps/intel/composer_xe_2013_sp1.2.144/compiler/lib/intel64/libifcoremt.a(for_wseq.o)
                                         0x14 (size before relaxing)
 *fill*         0x00000000006a000b       0x15 
 .rodata        0x00000000006a0020      0x260 /apps/intel/composer_xe_2013_sp1.2.144/compiler/lib/intel64/libifcoremt.a(for_wseq.o)
 .rodata.str1.4
                0x00000000006a0280       0x13 /apps/intel/composer_xe_2013_sp1.2.144/compiler/lib/intel64/libifcoremt.a(for_wseq_fmt.o)
                                         0x24 (size before relaxing)
 *fill*         0x00000000006a0293        0xd 
 .rodata        0x00000000006a02a0      0x300 /apps/intel/composer_xe_2013_sp1.2.144/compiler/lib/intel64/libifcoremt.a(for_wseq_fmt.o)
 .rodata        0x00000000006a05a0      0x4c0 /apps/intel/composer_xe_2013_sp1.2.144/compiler/lib/intel64/libifcoremt.a(for_wseq_lis.o)
 .rodata.str1.4
                0x00000000006a0a60        0xf /apps/intel/composer_xe_2013_sp1.2.144/compiler/lib/intel64/libifcoremt.a(for_wseq_lis.o)
                                         0x18 (size before relaxing)
 *fill*         0x00000000006a0a6f        0x1 
 .rodata.str1.4
                0x00000000006a0a70       0x63 /apps/intel/composer_xe_2013_sp1.2.144/compiler/lib/intel64/libifcoremt.a(for_wseq_nml.o)
                                         0x6c (size before relaxing)
 *fill*         0x00000000006a0ad3        0xd 
 .rodata        0x00000000006a0ae0      0x280 /apps/intel/composer_xe_2013_sp1.2.144/compiler/lib/intel64/libifcoremt.a(for_wseq_nml.o)
 .rodata        0x00000000006a0d60       0x38 /apps/intel/composer_xe_2013_sp1.2.144/compiler/lib/intel64/libifcoremt.a(for_f90str.o)
 .rodata.str1.4
                0x00000000006a0d98        0xd /apps/intel/composer_xe_2013_sp1.2.144/compiler/lib/intel64/libifcoremt.a(for_f90str.o)
                                         0x10 (size before relaxing)
 *fill*         0x00000000006a0da5        0x3 
 .rodata.str1.4
                0x00000000006a0da8      0x1f0 /apps/intel/composer_xe_2013_sp1.2.144/compiler/lib/intel64/libifcoremt.a(tbk_traceback.o)
                                        0x1fc (size before relaxing)
 *fill*         0x00000000006a0f98        0x8 
 .rodata.str1.32
                0x00000000006a0fa0      0xb93 /apps/intel/composer_xe_2013_sp1.2.144/compiler/lib/intel64/libifcoremt.a(tbk_traceback.o)
                                        0xba0 (size before relaxing)
 *fill*         0x00000000006a1b33        0x1 
 .rodata.str1.4
                0x00000000006a1b34       0xea /apps/intel/composer_xe_2013_sp1.2.144/compiler/lib/intel64/libifcoremt.a(for_aio.o)
                                        0x100 (size before relaxing)
 *fill*         0x00000000006a1c1e        0x2 
 .rodata        0x00000000006a1c20      0x120 /apps/intel/composer_xe_2013_sp1.2.144/compiler/lib/intel64/libifcoremt.a(for_aio.o)
 .rodata.str1.4
                0x00000000006a1d40       0x98 /apps/intel/composer_xe_2013_sp1.2.144/compiler/lib/intel64/libifcoremt.a(for_open_proc.o)
                                         0xec (size before relaxing)
 *fill*         0x00000000006a1dd8        0x8 
 .rodata        0x00000000006a1de0      0x360 /apps/intel/composer_xe_2013_sp1.2.144/compiler/lib/intel64/libifcoremt.a(for_open_proc.o)
 .rodata        0x00000000006a2140      0x1e0 /apps/intel/composer_xe_2013_sp1.2.144/compiler/lib/intel64/libifcoremt.a(cvt_vax_f.o)
 .rodata        0x00000000006a2320      0x1e0 /apps/intel/composer_xe_2013_sp1.2.144/compiler/lib/intel64/libifcoremt.a(cvt_vax_d.o)
 .rodata        0x00000000006a2500      0x1e0 /apps/intel/composer_xe_2013_sp1.2.144/compiler/lib/intel64/libifcoremt.a(cvt_vax_g.o)
 .rodata        0x00000000006a26e0      0x3c0 /apps/intel/composer_xe_2013_sp1.2.144/compiler/lib/intel64/libifcoremt.a(cvt_cray.o)
 .rodata        0x00000000006a2aa0      0x1e0 /apps/intel/composer_xe_2013_sp1.2.144/compiler/lib/intel64/libifcoremt.a(cvt_ibm_short.o)
 .rodata        0x00000000006a2c80      0x1e0 /apps/intel/composer_xe_2013_sp1.2.144/compiler/lib/intel64/libifcoremt.a(cvt_ibm_long.o)
 .rodata        0x00000000006a2e60      0x960 /apps/intel/composer_xe_2013_sp1.2.144/compiler/lib/intel64/libifcoremt.a(cvt_ieee_double.o)
 .rodata        0x00000000006a37c0      0x5a0 /apps/intel/composer_xe_2013_sp1.2.144/compiler/lib/intel64/libifcoremt.a(cvt_ieee_single.o)
 .rodata        0x00000000006a3d60      0x5e0 /apps/intel/composer_xe_2013_sp1.2.144/compiler/lib/intel64/libifcoremt.a(for_common_inquire.o)
 .rodata.str1.4
                0x00000000006a4340       0x1f /apps/intel/composer_xe_2013_sp1.2.144/compiler/lib/intel64/libifcoremt.a(for_common_inquire.o)
                                         0xb8 (size before relaxing)
 *fill*         0x00000000006a435f        0x1 
 .rodata.str1.4
                0x00000000006a4360       0x43 /apps/intel/composer_xe_2013_sp1.2.144/compiler/lib/intel64/libifcoremt.a(for_default_io_sizes_env_init.o)
                                         0x44 (size before relaxing)
 *fill*         0x00000000006a43a3       0x1d 
 .rodata        0x00000000006a43c0      0x380 /apps/intel/composer_xe_2013_sp1.2.144/compiler/lib/intel64/libifcoremt.a(for_fmt_comp.o)
 .rodata.str1.4
                0x00000000006a4740        0xf /apps/intel/composer_xe_2013_sp1.2.144/compiler/lib/intel64/libifcoremt.a(for_fmt_comp.o)
                                         0x10 (size before relaxing)
 *fill*         0x00000000006a474f       0x11 
 .rodata        0x00000000006a4760     0x11a0 /apps/intel/composer_xe_2013_sp1.2.144/compiler/lib/intel64/libifcoremt.a(for_fmt_val.o)
 .rodata        0x00000000006a5900       0x60 /apps/intel/composer_xe_2013_sp1.2.144/compiler/lib/intel64/libifcoremt.a(for_get.o)
 .rodata.str1.4
                0x00000000006a5960        0xa /apps/intel/composer_xe_2013_sp1.2.144/compiler/lib/intel64/libifcoremt.a(for_get.o)
                                          0xc (size before relaxing)
 *fill*         0x00000000006a596a       0x16 
 .rodata        0x00000000006a5980      0xc00 /apps/intel/composer_xe_2013_sp1.2.144/compiler/lib/intel64/libifcoremt.a(for_intrp_fmt.o)
                0x00000000006a5f20                for__oz_fmt_table
                0x00000000006a5f80                for__b_fmt_table
                0x00000000006a6020                for__fedg_fmt_table
                0x00000000006a6100                for__coerce_data_types
                0x00000000006a6563                for__i_fmt_table
 .rodata.str1.4
                0x00000000006a6580       0x10 /apps/intel/composer_xe_2013_sp1.2.144/compiler/lib/intel64/libifcoremt.a(for_intrp_fmt.o)
 *fill*         0x00000000006a6590       0x10 
 .rodata        0x00000000006a65a0      0x240 /apps/intel/composer_xe_2013_sp1.2.144/compiler/lib/intel64/libifcoremt.a(for_ldir_wfs.o)
                0x00000000006a65a0                for__wfs_table
                0x00000000006a66c0                for__wfs_msf_table
 .rodata.str1.4
                0x00000000006a67e0       0x2c /apps/intel/composer_xe_2013_sp1.2.144/compiler/lib/intel64/libifcoremt.a(for_rint_lis.o)
                                         0x34 (size before relaxing)
 *fill*         0x00000000006a680c       0x14 
 .rodata        0x00000000006a6820      0xca0 /apps/intel/composer_xe_2013_sp1.2.144/compiler/lib/intel64/libifcoremt.a(for_rint_lis.o)
 .rodata.str1.4
                0x00000000006a74c0       0x1d /apps/intel/composer_xe_2013_sp1.2.144/compiler/lib/intel64/libifcoremt.a(for_rseq_lis.o)
                                         0x28 (size before relaxing)
 *fill*         0x00000000006a74dd        0x3 
 .rodata        0x00000000006a74e0      0xca0 /apps/intel/composer_xe_2013_sp1.2.144/compiler/lib/intel64/libifcoremt.a(for_rseq_lis.o)
 .rodata        0x00000000006a8180      0x1c0 /apps/intel/composer_xe_2013_sp1.2.144/compiler/lib/intel64/libifcoremt.a(cvt__globals.o)
                0x00000000006a8180                vax_c
                0x00000000006a81c0                ieee_t
                0x00000000006a8230                ieee_s
                0x00000000006a8268                ibm_s
                0x00000000006a8284                ibm_l
                0x00000000006a82bc                cray
                0x00000000006a82f4                int_c
 .rodata        0x00000000006a8340       0x20 /apps/intel/composer_xe_2013_sp1.2.144/compiler/lib/intel64/libifcoremt.a(cvt_int_to_text.o)
 .rodata.str1.4
                0x00000000006a8360       0x11 /apps/intel/composer_xe_2013_sp1.2.144/compiler/lib/intel64/libifcoremt.a(cvt_int_to_text.o)
                                         0x14 (size before relaxing)
 .rodata.str1.4
                0x00000000006a8371       0x14 /apps/intel/composer_xe_2013_sp1.2.144/compiler/lib/intel64/libifcoremt.a(cvt_data_to_text.o)
 *fill*         0x00000000006a8371        0xf 
 .rodata        0x00000000006a8380       0x20 /apps/intel/composer_xe_2013_sp1.2.144/compiler/lib/intel64/libifcoremt.a(cvt_data_to_text.o)
 .rodata        0x00000000006a83a0       0x20 /apps/intel/composer_xe_2013_sp1.2.144/compiler/lib/intel64/libifcoremt.a(cvt_log_to_text.o)
 .rodata        0x00000000006a83c0      0x600 /apps/intel/composer_xe_2013_sp1.2.144/compiler/lib/intel64/libifcoremt.a(cvt_text_to_int.o)
 .rodata        0x00000000006a89c0      0x600 /apps/intel/composer_xe_2013_sp1.2.144/compiler/lib/intel64/libifcoremt.a(cvt_text_to_data.o)
 .rodata        0x00000000006a8fc0        0x8 /apps/intel/composer_xe_2013_sp1.2.144/compiler/lib/intel64/libifcoremt.a(cvt_cvtas_t.o)
 .rodata        0x00000000006a8fc8        0x8 /apps/intel/composer_xe_2013_sp1.2.144/compiler/lib/intel64/libifcoremt.a(cvt_cvtas_s.o)
 .rodata        0x00000000006a8fd0        0x8 /apps/intel/composer_xe_2013_sp1.2.144/compiler/lib/intel64/libifcoremt.a(cvt_cvtas_x.o)
 .rodata.str1.4
                0x00000000006a8fd8        0xd /apps/intel/composer_xe_2013_sp1.2.144/compiler/lib/intel64/libifcoremt.a(cvtas_a_to_s.o)
                                         0x10 (size before relaxing)
 *fill*         0x00000000006a8fe5        0xb 
 .rodata        0x00000000006a8ff0       0x10 /apps/intel/composer_xe_2013_sp1.2.144/compiler/lib/intel64/libifcoremt.a(cvtas_a_to_s.o)
 .rodata.str1.4
                0x00000000006a9000       0x10 /apps/intel/composer_xe_2013_sp1.2.144/compiler/lib/intel64/libifcoremt.a(cvtas_a_to_t.o)
 .rodata        0x00000000006a9000       0x10 /apps/intel/composer_xe_2013_sp1.2.144/compiler/lib/intel64/libifcoremt.a(cvtas_a_to_t.o)
 .rodata.str1.4
                0x00000000006a9010        0xd /apps/intel/composer_xe_2013_sp1.2.144/compiler/lib/intel64/libifcoremt.a(cvtas_s_to_a.o)
                                         0x30 (size before relaxing)
 *fill*         0x00000000006a901d        0x3 
 .rodata        0x00000000006a9020       0x10 /apps/intel/composer_xe_2013_sp1.2.144/compiler/lib/intel64/libifcoremt.a(cvtas_s_to_a.o)
 .rodata.str1.4
                0x00000000006a9030       0x30 /apps/intel/composer_xe_2013_sp1.2.144/compiler/lib/intel64/libifcoremt.a(cvtas_t_to_a.o)
 .rodata        0x00000000006a9030       0x10 /apps/intel/composer_xe_2013_sp1.2.144/compiler/lib/intel64/libifcoremt.a(cvtas_t_to_a.o)
 .rodata.str1.4
                0x00000000006a9040       0x10 /apps/intel/composer_xe_2013_sp1.2.144/compiler/lib/intel64/libifcoremt.a(cvtas_a_to_x.o)
 .rodata.str1.4
                0x00000000006a9040       0x30 /apps/intel/composer_xe_2013_sp1.2.144/compiler/lib/intel64/libifcoremt.a(cvtas_x_to_a.o)
 .rodata        0x00000000006a9040       0x10 /apps/intel/composer_xe_2013_sp1.2.144/compiler/lib/intel64/libifcoremt.a(cvtas_x_to_a.o)
 *fill*         0x00000000006a9050       0x10 
 .rodata        0x00000000006a9060      0x180 /apps/intel/composer_xe_2013_sp1.2.144/compiler/lib/intel64/libifcoremt.a(cvtas_globals.o)
                0x00000000006a9060                cvtas_pten_word
                0x00000000006a9100                cvtas_globals_t
                0x00000000006a9160                cvtas_globals_x
                0x00000000006a91c0                cvtas_globals_s
 .rodata        0x00000000006a91e0      0x4e0 /apps/intel/composer_xe_2013_sp1.2.144/compiler/lib/intel64/libifcoremt.a(cvtas_pow_ten_53.o)
                0x00000000006a91e0                cvtas_pten_t
                0x00000000006a94e0                cvtas_tiny_pten_t
                0x00000000006a9580                cvtas_tiny_pten_t_map
                0x00000000006a95e0                cvtas_huge_pten_t
                0x00000000006a9660                cvtas_huge_pten_t_map
 .rodata        0x00000000006a96c0      0x5e0 /apps/intel/composer_xe_2013_sp1.2.144/compiler/lib/intel64/libifcoremt.a(cvtas_pow_ten_64.o)
                0x00000000006a96c0                cvtas_pten_64
                0x00000000006a99c0                cvtas_pten_64_bexp
                0x00000000006a9a80                cvtas_tiny_pten_64
                0x00000000006a9b00                cvtas_tiny_pten_64_map
                0x00000000006a9b80                cvtas_huge_pten_64
                0x00000000006a9c00                cvtas_huge_pten_64_map
                0x00000000006a9c5a                cvtas_tiny_pten_64_bexp
                0x00000000006a9c78                cvtas_huge_pten_64_bexp
 .rodata        0x00000000006a9ca0      0x520 /apps/intel/composer_xe_2013_sp1.2.144/compiler/lib/intel64/libifcoremt.a(cvtas_pow_ten_128.o)
                0x00000000006a9ca0                cvtas_pten_128
                0x00000000006a9e60                cvtas_tiny_tiny_pten_128
                0x00000000006a9ea0                cvtas_tiny_pten_128
                0x00000000006a9f40                cvtas_tiny_pten_128_map
                0x00000000006a9fe0                cvtas_huge_huge_pten_128
                0x00000000006aa020                cvtas_huge_pten_128
                0x00000000006aa0c0                cvtas_huge_pten_128_map
                0x00000000006aa148                cvtas_pten_128_bexp
                0x00000000006aa17e                cvtas_tiny_tiny_pten_128_bexp
                0x00000000006aa186                cvtas_tiny_pten_128_bexp
                0x00000000006aa19a                cvtas_huge_huge_pten_128_bexp
                0x00000000006aa1a2                cvtas_huge_pten_128_bexp
 .rodata        0x00000000006aa1c0     0x1ac0 /apps/intel/composer_xe_2013_sp1.2.144/compiler/lib/intel64/libimf.a(asin.o)
 .rodata        0x00000000006abc80       0x10 /apps/intel/composer_xe_2013_sp1.2.144/compiler/lib/intel64/libimf.a(f__powi4i4.o)
 .rodata        0x00000000006abc90        0x8 /apps/intel/composer_xe_2013_sp1.2.144/compiler/lib/intel64/libimf.a(f__powr4i4.o)
 .rodata.str1.4
                0x00000000006abc98      0x45a /apps/intel/composer_xe_2013_sp1.2.144/compiler/lib/intel64/libimf.a(libm_error.o)
                                        0x484 (size before relaxing)
 *fill*         0x00000000006ac0f2        0x6 
 .rodata        0x00000000006ac0f8      0x900 /apps/intel/composer_xe_2013_sp1.2.144/compiler/lib/intel64/libimf.a(libm_error.o)
 *fill*         0x00000000006ac9f8        0x8 
 .rodata        0x00000000006aca00      0x440 /apps/intel/composer_xe_2013_sp1.2.144/compiler/lib/intel64/libimf.a(asinf_ct.o)
 .rodata        0x00000000006ace40      0x110 /apps/intel/composer_xe_2013_sp1.2.144/compiler/lib/intel64/libimf.a(asinf_gen.o)
 .rodata        0x00000000006acf50      0x870 /apps/intel/composer_xe_2013_sp1.2.144/compiler/lib/intel64/libimf.a(log10_ct.o)
 .rodata        0x00000000006ad7c0      0x810 /apps/intel/composer_xe_2013_sp1.2.144/compiler/lib/intel64/libimf.a(log10f_ct.o)
 .rodata        0x00000000006adfd0       0xc8 /apps/intel/composer_xe_2013_sp1.2.144/compiler/lib/intel64/libimf.a(log10f_gen.o)
 *fill*         0x00000000006ae098        0x8 
 .rodata        0x00000000006ae0a0      0x870 /apps/intel/composer_xe_2013_sp1.2.144/compiler/lib/intel64/libimf.a(log10_gen.o)
 .rodata        0x00000000006ae910      0x810 /apps/intel/composer_xe_2013_sp1.2.144/compiler/lib/intel64/libimf.a(logf_ct.o)
 .rodata        0x00000000006af120       0x58 /apps/intel/composer_xe_2013_sp1.2.144/compiler/lib/intel64/libimf.a(logf_gen.o)
 *fill*         0x00000000006af178        0x8 
 .rodata        0x00000000006af180      0x800 /apps/intel/composer_xe_2013_sp1.2.144/compiler/lib/intel64/libimf.a(logf_table.o)
                0x00000000006af180                __libm_logf_table_256
 .rodata        0x00000000006af980      0xc00 /apps/intel/composer_xe_2013_sp1.2.144/compiler/lib/intel64/libimf.a(rcp_table.o)
                0x00000000006af980                __libm_rcp_table_256
                0x00000000006afd80                __libm_double_rcp_table_256
 .rodata        0x00000000006b0580      0xb60 /apps/intel/composer_xe_2013_sp1.2.144/compiler/lib/intel64/libsvml.a(svml_dcos2_y8la.o)
 .rodata        0x00000000006b10e0      0xb60 /apps/intel/composer_xe_2013_sp1.2.144/compiler/lib/intel64/libsvml.a(svml_dcos2_e7la.o)
 .rodata        0x00000000006b1c40      0xb60 /apps/intel/composer_xe_2013_sp1.2.144/compiler/lib/intel64/libsvml.a(svml_dcos2_exla.o)
 .rodata        0x00000000006b27a0      0xb60 /apps/intel/composer_xe_2013_sp1.2.144/compiler/lib/intel64/libsvml.a(svml_dcos2_h9la.o)
 .rodata        0x00000000006b3300      0x100 /apps/intel/composer_xe_2013_sp1.2.144/compiler/lib/intel64/libsvml.a(svml_s_round_data_exla.o)
                0x00000000006b3300                __svml_sround_data
 .rodata        0x00000000006b3400       0x40 /apps/intel/composer_xe_2013_sp1.2.144/compiler/lib/intel64/libsvml.a(svml_sroundf4_e7la.o)
 .rodata        0x00000000006b3440       0x40 /apps/intel/composer_xe_2013_sp1.2.144/compiler/lib/intel64/libsvml.a(svml_sroundf4_exla.o)
 .rodata        0x00000000006b3480       0x40 /apps/intel/composer_xe_2013_sp1.2.144/compiler/lib/intel64/libsvml.a(svml_sroundf4_h9la.o)
 .rodata        0x00000000006b34c0       0x18 /apps/intel/composer_xe_2013_sp1.2.144/compiler/lib/intel64/libirc.a(q2ints.o)
 .rodata.str1.4
                0x00000000006b34d8      0x113 /apps/intel/composer_xe_2013_sp1.2.144/compiler/lib/intel64/libirc.a(tbk_display.o)
                                        0x118 (size before relaxing)
 *fill*         0x00000000006b35eb       0x15 
 .rodata.str1.32
                0x00000000006b3600       0xa2 /apps/intel/composer_xe_2013_sp1.2.144/compiler/lib/intel64/libirc.a(tbk_display.o)
                                         0xc0 (size before relaxing)
 *fill*         0x00000000006b36a2        0x2 
 .rodata.str1.4
                0x00000000006b36a4       0x24 /apps/intel/composer_xe_2013_sp1.2.144/compiler/lib/intel64/libirc.a(tbk_backtrace.o)
                                         0x3c (size before relaxing)
 .rodata        0x00000000006b36c8        0x8 /apps/intel/composer_xe_2013_sp1.2.144/compiler/lib/intel64/libirc.a(tbk_backtrace.o)
 .rodata.str1.4
                0x00000000006b36d0      0x10f /apps/intel/composer_xe_2013_sp1.2.144/compiler/lib/intel64/libirc.a(new_proc_init.o)
                                        0x114 (size before relaxing)
 *fill*         0x00000000006b37df        0x1 
 .rodata.ssse3  0x00000000006b37e0      0x1c0 /apps/intel/composer_xe_2013_sp1.2.144/compiler/lib/intel64/libirc.a(intel_ssse3_memcpy.o)
 .rodata.ssse3  0x00000000006b39a0      0x500 /apps/intel/composer_xe_2013_sp1.2.144/compiler/lib/intel64/libirc.a(intel_ssse3_rep_memcpy.o)
 .rodata.ssse3  0x00000000006b3ea0      0x1c0 /apps/intel/composer_xe_2013_sp1.2.144/compiler/lib/intel64/libirc.a(intel_ssse3_memmove.o)
 .rodata.ssse3  0x00000000006b4060      0x500 /apps/intel/composer_xe_2013_sp1.2.144/compiler/lib/intel64/libirc.a(intel_ssse3_rep_memmove.o)
 .rodata.str1.4
                0x00000000006b4560      0x58c /apps/intel/composer_xe_2013_sp1.2.144/compiler/lib/intel64/libirc.a(irc_msg_support.o)
                                        0x5b0 (size before relaxing)
 *fill*         0x00000000006b4aec       0x14 
 .rodata.str1.32
                0x00000000006b4b00      0x600 /apps/intel/composer_xe_2013_sp1.2.144/compiler/lib/intel64/libirc.a(irc_msg_support.o)

.trace          0x00000000006b5100     0x19a8
 .trace         0x00000000006b5100       0x40 kinds.o
 .trace         0x00000000006b5140      0x158 constants.o
 .trace         0x00000000006b5298       0xd8 namelist_def.o
 .trace         0x00000000006b5370      0x1b0 variable_interface.o
 .trace         0x00000000006b5520      0x408 gfs_nems_interface.o
 .trace         0x00000000006b5928      0xba8 fv3_interface.o
 .trace         0x00000000006b64d0       0xa0 calc_increment_interface.o
 .trace         0x00000000006b6570      0x328 /scratch3/NCEPDEV/nwprod/lib/bacio/v2.0.1/libbacio_v2.0.1_4.a(baciof.o)
 .trace         0x00000000006b6898      0x190 /scratch3/NCEPDEV/nwprod/lib/bacio/v2.0.1/libbacio_v2.0.1_4.a(bafrio.o)
 .trace         0x00000000006b6a28       0x80 /scratch3/NCEPDEV/nwprod/lib/bacio/v2.0.1/libbacio_v2.0.1_4.a(chk_endianc.o)

.rodata1
 *(.rodata1)

.eh_frame_hdr   0x00000000006b6aa8     0x2b04
 *(.eh_frame_hdr)
 .eh_frame_hdr  0x00000000006b6aa8     0x2b04 /usr/lib/gcc/x86_64-redhat-linux/4.8.5/../../../../lib64/crt1.o

.eh_frame       0x00000000006b95b0    0x1c214
 *(.eh_frame)
 .eh_frame      0x00000000006b95b0       0x30 /usr/lib/gcc/x86_64-redhat-linux/4.8.5/../../../../lib64/crt1.o
 .eh_frame      0x00000000006b95e0       0x40 /usr/lib/gcc/x86_64-redhat-linux/4.8.5/../../../../lib64/crt1.o
 .eh_frame      0x00000000006b9620       0x30 /apps/intel/composer_xe_2013_sp1.2.144/compiler/lib/intel64/for_main.o
                                         0x48 (size before relaxing)
 .eh_frame      0x00000000006b9650       0x40 kinds.o
 .eh_frame      0x00000000006b9690       0x78 constants.o
                                         0x90 (size before relaxing)
 .eh_frame      0x00000000006b9708       0x78 namelist_def.o
                                         0x90 (size before relaxing)
 .eh_frame      0x00000000006b9780       0x90 variable_interface.o
                                         0xa8 (size before relaxing)
 .eh_frame      0x00000000006b9810      0x288 gfs_nems_interface.o
                                        0x2a0 (size before relaxing)
 .eh_frame      0x00000000006b9a98      0x210 fv3_interface.o
                                        0x228 (size before relaxing)
 .eh_frame      0x00000000006b9ca8       0x50 calc_increment_interface.o
                                         0x68 (size before relaxing)
 .eh_frame      0x00000000006b9cf8       0xc0 /tmp/ifort3qcMiK.o
                                         0xd8 (size before relaxing)
 .eh_frame      0x00000000006b9db8     0x12e0 /scratch3/NCEPDEV/nwprod/lib/nemsio/v2.2.1/libnemsio_v2.2.1.a(nemsio_openclose.o)
                                       0x12f8 (size before relaxing)
 .eh_frame      0x00000000006bb098      0x890 /scratch3/NCEPDEV/nwprod/lib/nemsio/v2.2.1/libnemsio_v2.2.1.a(nemsio_read.o)
                                        0x8a8 (size before relaxing)
 .eh_frame      0x00000000006bb928      0x848 /scratch3/NCEPDEV/nwprod/lib/nemsio/v2.2.1/libnemsio_v2.2.1.a(nemsio_write.o)
                                        0x860 (size before relaxing)
 .eh_frame      0x00000000006bc170      0x308 /scratch3/NCEPDEV/nwprod/lib/bacio/v2.0.1/libbacio_v2.0.1_4.a(baciof.o)
                                        0x320 (size before relaxing)
 .eh_frame      0x00000000006bc478      0x1d0 /scratch3/NCEPDEV/nwprod/lib/bacio/v2.0.1/libbacio_v2.0.1_4.a(bafrio.o)
                                        0x1e8 (size before relaxing)
 .eh_frame      0x00000000006bc648       0x60 /scratch3/NCEPDEV/nwprod/lib/bacio/v2.0.1/libbacio_v2.0.1_4.a(byteswap.o)
                                         0x78 (size before relaxing)
 .eh_frame      0x00000000006bc6a8       0x50 /scratch3/NCEPDEV/nwprod/lib/bacio/v2.0.1/libbacio_v2.0.1_4.a(chk_endianc.o)
                                         0x68 (size before relaxing)
 .eh_frame      0x00000000006bc6f8      0x8a0 /scratch3/NCEPDEV/nwprod/lib/bacio/v2.0.1/libbacio_v2.0.1_4.a(bacio.o)
                                        0x8b8 (size before relaxing)
 .eh_frame      0x00000000006bcf98      0x178 /scratch3/NCEPDEV/nwprod/lib/w3nco/v2.0.6/libw3nco_v2.0.6_4.a(getgbm.o)
                                        0x190 (size before relaxing)
 .eh_frame      0x00000000006bd110       0x88 /scratch3/NCEPDEV/nwprod/lib/w3nco/v2.0.6/libw3nco_v2.0.6_4.a(getgi.o)
                                         0xa0 (size before relaxing)
 .eh_frame      0x00000000006bd198       0x70 /scratch3/NCEPDEV/nwprod/lib/w3nco/v2.0.6/libw3nco_v2.0.6_4.a(getgir.o)
                                         0x88 (size before relaxing)
 .eh_frame      0x00000000006bd208       0x68 /scratch3/NCEPDEV/nwprod/lib/w3nco/v2.0.6/libw3nco_v2.0.6_4.a(ixgb.o)
                                         0x80 (size before relaxing)
 .eh_frame      0x00000000006bd270       0x18 /scratch3/NCEPDEV/nwprod/lib/w3nco/v2.0.6/libw3nco_v2.0.6_4.a(lengds.o)
                                         0x30 (size before relaxing)
 .eh_frame      0x00000000006bd288       0x50 /scratch3/NCEPDEV/nwprod/lib/w3nco/v2.0.6/libw3nco_v2.0.6_4.a(putgben.o)
                                         0x68 (size before relaxing)
 .eh_frame      0x00000000006bd2d8       0x30 /scratch3/NCEPDEV/nwprod/lib/w3nco/v2.0.6/libw3nco_v2.0.6_4.a(r63w72.o)
                                         0x48 (size before relaxing)
 .eh_frame      0x00000000006bd308       0x28 /scratch3/NCEPDEV/nwprod/lib/w3nco/v2.0.6/libw3nco_v2.0.6_4.a(sbytec.o)
                                         0x40 (size before relaxing)
 .eh_frame      0x00000000006bd330       0x50 /scratch3/NCEPDEV/nwprod/lib/w3nco/v2.0.6/libw3nco_v2.0.6_4.a(sbytesc.o)
                                         0x68 (size before relaxing)
 .eh_frame      0x00000000006bd380       0x50 /scratch3/NCEPDEV/nwprod/lib/w3nco/v2.0.6/libw3nco_v2.0.6_4.a(skgb.o)
                                         0x68 (size before relaxing)
 .eh_frame      0x00000000006bd3d0       0x58 /scratch3/NCEPDEV/nwprod/lib/w3nco/v2.0.6/libw3nco_v2.0.6_4.a(w3fi68.o)
                                         0x70 (size before relaxing)
 .eh_frame      0x00000000006bd428       0xe8 /scratch3/NCEPDEV/nwprod/lib/w3nco/v2.0.6/libw3nco_v2.0.6_4.a(w3fi72.o)
                                        0x100 (size before relaxing)
 .eh_frame      0x00000000006bd510       0x60 /scratch3/NCEPDEV/nwprod/lib/w3nco/v2.0.6/libw3nco_v2.0.6_4.a(w3fi73.o)
                                         0x78 (size before relaxing)
 .eh_frame      0x00000000006bd570       0x78 /scratch3/NCEPDEV/nwprod/lib/w3nco/v2.0.6/libw3nco_v2.0.6_4.a(w3fi74.o)
                                         0x90 (size before relaxing)
 .eh_frame      0x00000000006bd5e8      0x350 /scratch3/NCEPDEV/nwprod/lib/w3nco/v2.0.6/libw3nco_v2.0.6_4.a(w3fi75.o)
                                        0x368 (size before relaxing)
 .eh_frame      0x00000000006bd938       0x68 /scratch3/NCEPDEV/nwprod/lib/w3nco/v2.0.6/libw3nco_v2.0.6_4.a(w3fi76.o)
                                         0x80 (size before relaxing)
 .eh_frame      0x00000000006bd9a0       0x68 /scratch3/NCEPDEV/nwprod/lib/w3nco/v2.0.6/libw3nco_v2.0.6_4.a(w3fi82.o)
                                         0x80 (size before relaxing)
 .eh_frame      0x00000000006bda08       0x18 /scratch3/NCEPDEV/nwprod/lib/w3nco/v2.0.6/libw3nco_v2.0.6_4.a(mova2i.o)
                                         0x30 (size before relaxing)
 .eh_frame      0x00000000006bda20       0x28 /scratch3/NCEPDEV/nwprod/lib/w3nco/v2.0.6/libw3nco_v2.0.6_4.a(gbytec.o)
                                         0x40 (size before relaxing)
 .eh_frame      0x00000000006bda48       0x40 /scratch3/NCEPDEV/nwprod/lib/w3nco/v2.0.6/libw3nco_v2.0.6_4.a(gbytesc.o)
                                         0x58 (size before relaxing)
 .eh_frame      0x00000000006bda88       0x68 /scratch3/NCEPDEV/nwprod/lib/w3nco/v2.0.6/libw3nco_v2.0.6_4.a(getbit.o)
                                         0x80 (size before relaxing)
 .eh_frame      0x00000000006bdaf0       0x50 /scratch3/NCEPDEV/nwprod/lib/w3nco/v2.0.6/libw3nco_v2.0.6_4.a(getgb1r.o)
                                         0x68 (size before relaxing)
 .eh_frame      0x00000000006bdb40       0xb0 /scratch3/NCEPDEV/nwprod/lib/w3nco/v2.0.6/libw3nco_v2.0.6_4.a(getgb1s.o)
                                         0xc8 (size before relaxing)
 .eh_frame      0x00000000006bdbf0       0x70 /scratch3/NCEPDEV/nwprod/lib/w3nco/v2.0.6/libw3nco_v2.0.6_4.a(pdsens.o)
                                         0x88 (size before relaxing)
 .eh_frame      0x00000000006bdc60       0x70 /scratch3/NCEPDEV/nwprod/lib/w3nco/v2.0.6/libw3nco_v2.0.6_4.a(pdseup.o)
                                         0x88 (size before relaxing)
 .eh_frame      0x00000000006bdcd0       0x18 /scratch3/NCEPDEV/nwprod/lib/w3nco/v2.0.6/libw3nco_v2.0.6_4.a(w3fi01.o)
                                         0x30 (size before relaxing)
 .eh_frame      0x00000000006bdce8       0x98 /scratch3/NCEPDEV/nwprod/lib/w3nco/v2.0.6/libw3nco_v2.0.6_4.a(w3fi58.o)
                                         0xb0 (size before relaxing)
 .eh_frame      0x00000000006bdd80       0x98 /scratch3/NCEPDEV/nwprod/lib/w3nco/v2.0.6/libw3nco_v2.0.6_4.a(w3fi59.o)
                                         0xb0 (size before relaxing)
 .eh_frame      0x00000000006bde18      0xf48 /scratch3/NCEPDEV/nwprod/lib/w3nco/v2.0.6/libw3nco_v2.0.6_4.a(w3fi63.o)
                                        0xf60 (size before relaxing)
 .eh_frame      0x00000000006bed60       0x18 /scratch3/NCEPDEV/nwprod/lib/w3nco/v2.0.6/libw3nco_v2.0.6_4.a(w3fi71.o)
                                         0x30 (size before relaxing)
 .eh_frame      0x00000000006bed78       0x68 /scratch3/NCEPDEV/nwprod/lib/w3nco/v2.0.6/libw3nco_v2.0.6_4.a(w3fi83.o)
                                         0x80 (size before relaxing)
 .eh_frame      0x00000000006bede0     0x1f60 /apps/netcdf/3.6.3-intel/lib/libnetcdf.a(netcdf.o)
                                       0x1f78 (size before relaxing)
 .eh_frame      0x00000000006c0d40      0x260 /apps/netcdf/3.6.3-intel/lib/libnetcdf.a(fort-attio.o)
                                        0x248 (size before relaxing)
 .eh_frame      0x00000000006c0fa0      0x268 /apps/netcdf/3.6.3-intel/lib/libnetcdf.a(fort-control.o)
                                        0x260 (size before relaxing)
 .eh_frame      0x00000000006c1208      0x120 /apps/netcdf/3.6.3-intel/lib/libnetcdf.a(fort-dim.o)
                                        0x128 (size before relaxing)
 .eh_frame      0x00000000006c1328      0x198 /apps/netcdf/3.6.3-intel/lib/libnetcdf.a(fort-genatt.o)
 .eh_frame      0x00000000006c14c0       0xc8 /apps/netcdf/3.6.3-intel/lib/libnetcdf.a(fort-geninq.o)
                                         0xe0 (size before relaxing)
 .eh_frame      0x00000000006c1588      0x1a0 /apps/netcdf/3.6.3-intel/lib/libnetcdf.a(fort-genvar.o)
                                        0x1a8 (size before relaxing)
 .eh_frame      0x00000000006c1728      0x180 /apps/netcdf/3.6.3-intel/lib/libnetcdf.a(fort-lib.o)
                                        0x178 (size before relaxing)
 .eh_frame      0x00000000006c18a8       0x68 /apps/netcdf/3.6.3-intel/lib/libnetcdf.a(fort-misc.o)
                                         0x80 (size before relaxing)
 .eh_frame      0x00000000006c1910      0x1c0 /apps/netcdf/3.6.3-intel/lib/libnetcdf.a(fort-var1io.o)
                                        0x1d8 (size before relaxing)
 .eh_frame      0x00000000006c1ad0      0x230 /apps/netcdf/3.6.3-intel/lib/libnetcdf.a(fort-varaio.o)
                                        0x210 (size before relaxing)
 .eh_frame      0x00000000006c1d00      0x1e0 /apps/netcdf/3.6.3-intel/lib/libnetcdf.a(fort-varmio.o)
                                        0x1f8 (size before relaxing)
 .eh_frame      0x00000000006c1ee0      0x230 /apps/netcdf/3.6.3-intel/lib/libnetcdf.a(fort-varsio.o)
                                        0x248 (size before relaxing)
 .eh_frame      0x00000000006c2110      0x730 /apps/netcdf/3.6.3-intel/lib/libnetcdf.a(attr.o)
                                        0x708 (size before relaxing)
 .eh_frame      0x00000000006c2840     0x1788 /apps/netcdf/3.6.3-intel/lib/libnetcdf.a(ncx.o)
                                       0x1578 (size before relaxing)
 .eh_frame      0x00000000006c3fc8     0x1500 /apps/netcdf/3.6.3-intel/lib/libnetcdf.a(putget.o)
                                       0x1428 (size before relaxing)
 .eh_frame      0x00000000006c54c8      0x260 /apps/netcdf/3.6.3-intel/lib/libnetcdf.a(dim.o)
                                        0x250 (size before relaxing)
 .eh_frame      0x00000000006c5728       0x20 /apps/netcdf/3.6.3-intel/lib/libnetcdf.a(error.o)
                                         0x38 (size before relaxing)
 .eh_frame      0x00000000006c5748       0x18 /apps/netcdf/3.6.3-intel/lib/libnetcdf.a(libvers.o)
                                         0x30 (size before relaxing)
 .eh_frame      0x00000000006c5760      0x5e8 /apps/netcdf/3.6.3-intel/lib/libnetcdf.a(nc.o)
                                        0x590 (size before relaxing)
 .eh_frame      0x00000000006c5d48       0xa8 /apps/netcdf/3.6.3-intel/lib/libnetcdf.a(string.o)
                                         0xb0 (size before relaxing)
 .eh_frame      0x00000000006c5df0      0x308 /apps/netcdf/3.6.3-intel/lib/libnetcdf.a(v1hpg.o)
                                        0x2f0 (size before relaxing)
 .eh_frame      0x00000000006c60f8      0x3c0 /apps/netcdf/3.6.3-intel/lib/libnetcdf.a(var.o)
                                        0x398 (size before relaxing)
 .eh_frame      0x00000000006c64b8      0x1d8 /apps/netcdf/3.6.3-intel/lib/libnetcdf.a(utf8proc.o)
 .eh_frame      0x00000000006c6690      0x3c8 /apps/netcdf/3.6.3-intel/lib/libnetcdf.a(posixio.o)
                                        0x398 (size before relaxing)
 .eh_frame      0x00000000006c6a58      0x220 /apps/intel/composer_xe_2013_sp1.2.144/compiler/lib/intel64/libifcoremt.a(for_close.o)
                                        0x238 (size before relaxing)
 .eh_frame      0x00000000006c6c78       0x88 /apps/intel/composer_xe_2013_sp1.2.144/compiler/lib/intel64/libifcoremt.a(for_close_proc.o)
                                         0xa0 (size before relaxing)
 .eh_frame      0x00000000006c6d00      0x680 /apps/intel/composer_xe_2013_sp1.2.144/compiler/lib/intel64/libifcoremt.a(for_contig_array.o)
                                        0x698 (size before relaxing)
 .eh_frame      0x00000000006c7380      0x200 /apps/intel/composer_xe_2013_sp1.2.144/compiler/lib/intel64/libifcoremt.a(for_desc_item.o)
                                        0x218 (size before relaxing)
 .eh_frame      0x00000000006c7580      0x490 /apps/intel/composer_xe_2013_sp1.2.144/compiler/lib/intel64/libifcoremt.a(for_diags_intel.o)
                                        0x4a8 (size before relaxing)
 .eh_frame      0x00000000006c7a10       0x60 /apps/intel/composer_xe_2013_sp1.2.144/compiler/lib/intel64/libifcoremt.a(for_exit_handler.o)
                                         0x78 (size before relaxing)
 .eh_frame      0x00000000006c7a70      0x320 /apps/intel/composer_xe_2013_sp1.2.144/compiler/lib/intel64/libifcoremt.a(for_init.o)
                                        0x338 (size before relaxing)
 .eh_frame      0x00000000006c7d90      0x2a0 /apps/intel/composer_xe_2013_sp1.2.144/compiler/lib/intel64/libifcoremt.a(for_inquire.o)
                                        0x2b8 (size before relaxing)
 .eh_frame      0x00000000006c8030      0x1c0 /apps/intel/composer_xe_2013_sp1.2.144/compiler/lib/intel64/libifcoremt.a(for_io_util.o)
                                        0x1d8 (size before relaxing)
 .eh_frame      0x00000000006c81f0      0x4a8 /apps/intel/composer_xe_2013_sp1.2.144/compiler/lib/intel64/libifcoremt.a(for_lub_mgt.o)
                                        0x4c0 (size before relaxing)
 .eh_frame      0x00000000006c8698       0xc8 /apps/intel/composer_xe_2013_sp1.2.144/compiler/lib/intel64/libifcoremt.a(for_need_lf.o)
                                         0xe0 (size before relaxing)
 .eh_frame      0x00000000006c8760      0xa98 /apps/intel/composer_xe_2013_sp1.2.144/compiler/lib/intel64/libifcoremt.a(for_open.o)
                                        0xab0 (size before relaxing)
 .eh_frame      0x00000000006c91f8       0x30 /apps/intel/composer_xe_2013_sp1.2.144/compiler/lib/intel64/libifcoremt.a(for_preconnected_units_init.o)
                                         0x48 (size before relaxing)
 .eh_frame      0x00000000006c9228      0x228 /apps/intel/composer_xe_2013_sp1.2.144/compiler/lib/intel64/libifcoremt.a(for_put.o)
                                        0x240 (size before relaxing)
 .eh_frame      0x00000000006c9450      0x380 /apps/intel/composer_xe_2013_sp1.2.144/compiler/lib/intel64/libifcoremt.a(for_reentrancy.o)
                                        0x398 (size before relaxing)
 .eh_frame      0x00000000006c97d0      0x630 /apps/intel/composer_xe_2013_sp1.2.144/compiler/lib/intel64/libifcoremt.a(for_rint_fmt.o)
                                        0x648 (size before relaxing)
 .eh_frame      0x00000000006c9e00     0x14e0 /apps/intel/composer_xe_2013_sp1.2.144/compiler/lib/intel64/libifcoremt.a(for_rseq_nml.o)
                                       0x14f8 (size before relaxing)
 .eh_frame      0x00000000006cb2e0      0x260 /apps/intel/composer_xe_2013_sp1.2.144/compiler/lib/intel64/libifcoremt.a(for_stop.o)
                                        0x278 (size before relaxing)
 .eh_frame      0x00000000006cb540      0x330 /apps/intel/composer_xe_2013_sp1.2.144/compiler/lib/intel64/libifcoremt.a(for_vm.o)
                                        0x348 (size before relaxing)
 .eh_frame      0x00000000006cb870      0x610 /apps/intel/composer_xe_2013_sp1.2.144/compiler/lib/intel64/libifcoremt.a(for_wint_fmt.o)
                                        0x628 (size before relaxing)
 .eh_frame      0x00000000006cbe80      0x9c0 /apps/intel/composer_xe_2013_sp1.2.144/compiler/lib/intel64/libifcoremt.a(for_wseq.o)
                                        0x9d8 (size before relaxing)
 .eh_frame      0x00000000006cc840      0xa00 /apps/intel/composer_xe_2013_sp1.2.144/compiler/lib/intel64/libifcoremt.a(for_wseq_fmt.o)
                                        0xa18 (size before relaxing)
 .eh_frame      0x00000000006cd240      0xbf0 /apps/intel/composer_xe_2013_sp1.2.144/compiler/lib/intel64/libifcoremt.a(for_wseq_lis.o)
                                        0xc08 (size before relaxing)
 .eh_frame      0x00000000006cde30      0xf00 /apps/intel/composer_xe_2013_sp1.2.144/compiler/lib/intel64/libifcoremt.a(for_wseq_nml.o)
                                        0xf18 (size before relaxing)
 .eh_frame      0x00000000006ced30       0x88 /apps/intel/composer_xe_2013_sp1.2.144/compiler/lib/intel64/libifcoremt.a(for_90_adjust.o)
                                         0xa0 (size before relaxing)
 .eh_frame      0x00000000006cedb8       0x58 /apps/intel/composer_xe_2013_sp1.2.144/compiler/lib/intel64/libifcoremt.a(for_90_trim.o)
                                         0x70 (size before relaxing)
 .eh_frame      0x00000000006cee10      0x280 /apps/intel/composer_xe_2013_sp1.2.144/compiler/lib/intel64/libifcoremt.a(for_f90str.o)
                                        0x298 (size before relaxing)
 .eh_frame      0x00000000006cf090       0x58 /apps/intel/composer_xe_2013_sp1.2.144/compiler/lib/intel64/libifcoremt.a(tbk_traceback.o)
                                         0x70 (size before relaxing)
 .eh_frame      0x00000000006cf0e8      0x780 /apps/intel/composer_xe_2013_sp1.2.144/compiler/lib/intel64/libifcoremt.a(for_aio.o)
                                        0x798 (size before relaxing)
 .eh_frame      0x00000000006cf868      0x768 /apps/intel/composer_xe_2013_sp1.2.144/compiler/lib/intel64/libifcoremt.a(for_open_proc.o)
                                        0x780 (size before relaxing)
 .eh_frame      0x00000000006cffd0      0x190 /apps/intel/composer_xe_2013_sp1.2.144/compiler/lib/intel64/libifcoremt.a(for_aio_wrap.o)
                                        0x1a8 (size before relaxing)
 .eh_frame      0x00000000006d0160       0xc8 /apps/intel/composer_xe_2013_sp1.2.144/compiler/lib/intel64/libifcoremt.a(cvt_vax_f.o)
                                         0xe0 (size before relaxing)
 .eh_frame      0x00000000006d0228       0xc8 /apps/intel/composer_xe_2013_sp1.2.144/compiler/lib/intel64/libifcoremt.a(cvt_vax_d.o)
                                         0xe0 (size before relaxing)
 .eh_frame      0x00000000006d02f0       0xc8 /apps/intel/composer_xe_2013_sp1.2.144/compiler/lib/intel64/libifcoremt.a(cvt_vax_g.o)
                                         0xe0 (size before relaxing)
 .eh_frame      0x00000000006d03b8      0x1e0 /apps/intel/composer_xe_2013_sp1.2.144/compiler/lib/intel64/libifcoremt.a(cvt_cray.o)
                                        0x1f8 (size before relaxing)
 .eh_frame      0x00000000006d0598       0xe0 /apps/intel/composer_xe_2013_sp1.2.144/compiler/lib/intel64/libifcoremt.a(cvt_ibm_short.o)
                                         0xf8 (size before relaxing)
 .eh_frame      0x00000000006d0678      0x108 /apps/intel/composer_xe_2013_sp1.2.144/compiler/lib/intel64/libifcoremt.a(cvt_ibm_long.o)
                                        0x120 (size before relaxing)
 .eh_frame      0x00000000006d0780      0x4f8 /apps/intel/composer_xe_2013_sp1.2.144/compiler/lib/intel64/libifcoremt.a(cvt_ieee_double.o)
                                        0x510 (size before relaxing)
 .eh_frame      0x00000000006d0c78      0x2a0 /apps/intel/composer_xe_2013_sp1.2.144/compiler/lib/intel64/libifcoremt.a(cvt_ieee_single.o)
                                        0x2b8 (size before relaxing)
 .eh_frame      0x00000000006d0f18       0x88 /apps/intel/composer_xe_2013_sp1.2.144/compiler/lib/intel64/libifcoremt.a(for_common_inquire.o)
                                         0xa0 (size before relaxing)
 .eh_frame      0x00000000006d0fa0       0x28 /apps/intel/composer_xe_2013_sp1.2.144/compiler/lib/intel64/libifcoremt.a(for_default_io_sizes_env_init.o)
                                         0x40 (size before relaxing)
 .eh_frame      0x00000000006d0fc8       0x28 /apps/intel/composer_xe_2013_sp1.2.144/compiler/lib/intel64/libifcoremt.a(for_exit.o)
                                         0x40 (size before relaxing)
 .eh_frame      0x00000000006d0ff0      0x698 /apps/intel/composer_xe_2013_sp1.2.144/compiler/lib/intel64/libifcoremt.a(for_fmt_comp.o)
                                        0x6b0 (size before relaxing)
 .eh_frame      0x00000000006d1688      0x1a8 /apps/intel/composer_xe_2013_sp1.2.144/compiler/lib/intel64/libifcoremt.a(for_fmt_val.o)
                                        0x1c0 (size before relaxing)
 .eh_frame      0x00000000006d1830      0x478 /apps/intel/composer_xe_2013_sp1.2.144/compiler/lib/intel64/libifcoremt.a(for_get.o)
                                        0x490 (size before relaxing)
 .eh_frame      0x00000000006d1ca8      0x160 /apps/intel/composer_xe_2013_sp1.2.144/compiler/lib/intel64/libifcoremt.a(for_intrp_fmt.o)
                                        0x178 (size before relaxing)
 .eh_frame      0x00000000006d1e08      0x568 /apps/intel/composer_xe_2013_sp1.2.144/compiler/lib/intel64/libifcoremt.a(for_rint_lis.o)
                                        0x580 (size before relaxing)
 .eh_frame      0x00000000006d2370      0x8f8 /apps/intel/composer_xe_2013_sp1.2.144/compiler/lib/intel64/libifcoremt.a(for_rseq_lis.o)
                                        0x910 (size before relaxing)
 .eh_frame      0x00000000006d2c68      0x110 /apps/intel/composer_xe_2013_sp1.2.144/compiler/lib/intel64/libifcoremt.a(cvt_int_to_text.o)
                                        0x128 (size before relaxing)
 .eh_frame      0x00000000006d2d78      0x180 /apps/intel/composer_xe_2013_sp1.2.144/compiler/lib/intel64/libifcoremt.a(cvt_data_to_text.o)
                                        0x198 (size before relaxing)
 .eh_frame      0x00000000006d2ef8      0x140 /apps/intel/composer_xe_2013_sp1.2.144/compiler/lib/intel64/libifcoremt.a(cvt_log_to_text.o)
                                        0x158 (size before relaxing)
 .eh_frame      0x00000000006d3038      0x270 /apps/intel/composer_xe_2013_sp1.2.144/compiler/lib/intel64/libifcoremt.a(cvt_text_to_int.o)
                                        0x288 (size before relaxing)
 .eh_frame      0x00000000006d32a8      0x128 /apps/intel/composer_xe_2013_sp1.2.144/compiler/lib/intel64/libifcoremt.a(cvt_text_to_data.o)
                                        0x140 (size before relaxing)
 .eh_frame      0x00000000006d33d0       0x90 /apps/intel/composer_xe_2013_sp1.2.144/compiler/lib/intel64/libifcoremt.a(cvt_text_to_log.o)
                                         0xa8 (size before relaxing)
 .eh_frame      0x00000000006d3460      0x350 /apps/intel/composer_xe_2013_sp1.2.144/compiler/lib/intel64/libifcoremt.a(cvt_cvtas_t.o)
                                        0x368 (size before relaxing)
 .eh_frame      0x00000000006d37b0      0x370 /apps/intel/composer_xe_2013_sp1.2.144/compiler/lib/intel64/libifcoremt.a(cvt_cvtas_s.o)
                                        0x388 (size before relaxing)
 .eh_frame      0x00000000006d3b20      0x348 /apps/intel/composer_xe_2013_sp1.2.144/compiler/lib/intel64/libifcoremt.a(cvt_cvtas_x.o)
                                        0x360 (size before relaxing)
 .eh_frame      0x00000000006d3e68       0x90 /apps/intel/composer_xe_2013_sp1.2.144/compiler/lib/intel64/libifcoremt.a(cvtas_a_to_s.o)
                                         0xa8 (size before relaxing)
 .eh_frame      0x00000000006d3ef8       0x90 /apps/intel/composer_xe_2013_sp1.2.144/compiler/lib/intel64/libifcoremt.a(cvtas_a_to_t.o)
                                         0xa8 (size before relaxing)
 .eh_frame      0x00000000006d3f88       0x60 /apps/intel/composer_xe_2013_sp1.2.144/compiler/lib/intel64/libifcoremt.a(cvtas_s_to_a.o)
                                         0x78 (size before relaxing)
 .eh_frame      0x00000000006d3fe8       0x60 /apps/intel/composer_xe_2013_sp1.2.144/compiler/lib/intel64/libifcoremt.a(cvtas_t_to_a.o)
                                         0x78 (size before relaxing)
 .eh_frame      0x00000000006d4048       0x18 /apps/intel/composer_xe_2013_sp1.2.144/compiler/lib/intel64/libifcoremt.a(cvtas_nan_s.o)
                                         0x30 (size before relaxing)
 .eh_frame      0x00000000006d4060       0x18 /apps/intel/composer_xe_2013_sp1.2.144/compiler/lib/intel64/libifcoremt.a(cvtas_nan_t.o)
                                         0x30 (size before relaxing)
 .eh_frame      0x00000000006d4078       0x90 /apps/intel/composer_xe_2013_sp1.2.144/compiler/lib/intel64/libifcoremt.a(cvtas_a_to_x.o)
                                         0xa8 (size before relaxing)
 .eh_frame      0x00000000006d4108       0x60 /apps/intel/composer_xe_2013_sp1.2.144/compiler/lib/intel64/libifcoremt.a(cvtas_x_to_a.o)
                                         0x78 (size before relaxing)
 .eh_frame      0x00000000006d4168       0x18 /apps/intel/composer_xe_2013_sp1.2.144/compiler/lib/intel64/libifcoremt.a(cvtas_nan_x.o)
                                         0x30 (size before relaxing)
 .eh_frame      0x00000000006d4180       0x20 /apps/intel/composer_xe_2013_sp1.2.144/compiler/lib/intel64/libimf.a(asin.o)
                                         0x38 (size before relaxing)
 .eh_frame      0x00000000006d41a0       0x20 /apps/intel/composer_xe_2013_sp1.2.144/compiler/lib/intel64/libimf.a(fetestexcept.o)
                                         0x38 (size before relaxing)
 .eh_frame      0x00000000006d41c0       0x18 /apps/intel/composer_xe_2013_sp1.2.144/compiler/lib/intel64/libimf.a(f__powi4i4.o)
                                         0x30 (size before relaxing)
 .eh_frame      0x00000000006d41d8       0x18 /apps/intel/composer_xe_2013_sp1.2.144/compiler/lib/intel64/libimf.a(f__powr4i4.o)
                                         0x30 (size before relaxing)
 .eh_frame      0x00000000006d41f0       0xe8 /apps/intel/composer_xe_2013_sp1.2.144/compiler/lib/intel64/libimf.a(libm_error.o)
                                        0x100 (size before relaxing)
 .eh_frame      0x00000000006d42d8       0x18 /apps/intel/composer_xe_2013_sp1.2.144/compiler/lib/intel64/libimf.a(matherrf.o)
                                         0x30 (size before relaxing)
 .eh_frame      0x00000000006d42f0       0x18 /apps/intel/composer_xe_2013_sp1.2.144/compiler/lib/intel64/libimf.a(matherrl.o)
                                         0x30 (size before relaxing)
 .eh_frame      0x00000000006d4308       0x18 /apps/intel/composer_xe_2013_sp1.2.144/compiler/lib/intel64/libimf.a(matherr.o)
                                         0x30 (size before relaxing)
 .eh_frame      0x00000000006d4320       0x20 /apps/intel/composer_xe_2013_sp1.2.144/compiler/lib/intel64/libimf.a(asinf_ct.o)
                                         0x38 (size before relaxing)
 .eh_frame      0x00000000006d4340       0x50 /apps/intel/composer_xe_2013_sp1.2.144/compiler/lib/intel64/libimf.a(asinf_gen.o)
                                         0x68 (size before relaxing)
 .eh_frame      0x00000000006d4390       0x20 /apps/intel/composer_xe_2013_sp1.2.144/compiler/lib/intel64/libimf.a(log10_ct.o)
                                         0x38 (size before relaxing)
 .eh_frame      0x00000000006d43b0       0x20 /apps/intel/composer_xe_2013_sp1.2.144/compiler/lib/intel64/libimf.a(log10f_ct.o)
                                         0x38 (size before relaxing)
 .eh_frame      0x00000000006d43d0       0x40 /apps/intel/composer_xe_2013_sp1.2.144/compiler/lib/intel64/libimf.a(log10f_gen.o)
                                         0x58 (size before relaxing)
 .eh_frame      0x00000000006d4410       0x20 /apps/intel/composer_xe_2013_sp1.2.144/compiler/lib/intel64/libimf.a(log10_gen.o)
                                         0x38 (size before relaxing)
 .eh_frame      0x00000000006d4430       0x20 /apps/intel/composer_xe_2013_sp1.2.144/compiler/lib/intel64/libimf.a(logf_ct.o)
                                         0x38 (size before relaxing)
 .eh_frame      0x00000000006d4450       0x38 /apps/intel/composer_xe_2013_sp1.2.144/compiler/lib/intel64/libimf.a(logf_gen.o)
                                         0x50 (size before relaxing)
 .eh_frame      0x00000000006d4488       0x60 /apps/intel/composer_xe_2013_sp1.2.144/compiler/lib/intel64/libsvml.a(svml_dcos2_la_iface.o)
                                         0x78 (size before relaxing)
 .eh_frame      0x00000000006d44e8       0x98 /apps/intel/composer_xe_2013_sp1.2.144/compiler/lib/intel64/libsvml.a(svml_dcos2_y8la.o)
                                         0xb0 (size before relaxing)
 .eh_frame      0x00000000006d4580       0x60 /apps/intel/composer_xe_2013_sp1.2.144/compiler/lib/intel64/libsvml.a(svml_sroundf4_la_iface.o)
                                         0x78 (size before relaxing)
 .eh_frame      0x00000000006d45e0       0x18 /apps/intel/composer_xe_2013_sp1.2.144/compiler/lib/intel64/libsvml.a(svml_sroundf4_y8la.o)
                                         0x30 (size before relaxing)
 .eh_frame      0x00000000006d45f8       0x50 /apps/intel/composer_xe_2013_sp1.2.144/compiler/lib/intel64/libsvml.a(svml_d_feature_flag_.o)
                                         0x68 (size before relaxing)
 .eh_frame      0x00000000006d4648       0x98 /apps/intel/composer_xe_2013_sp1.2.144/compiler/lib/intel64/libsvml.a(svml_dcos2_e7la.o)
                                         0xb0 (size before relaxing)
 .eh_frame      0x00000000006d46e0       0x98 /apps/intel/composer_xe_2013_sp1.2.144/compiler/lib/intel64/libsvml.a(svml_dcos2_exla.o)
                                         0xb0 (size before relaxing)
 .eh_frame      0x00000000006d4778       0x98 /apps/intel/composer_xe_2013_sp1.2.144/compiler/lib/intel64/libsvml.a(svml_dcos2_h9la.o)
                                         0xb0 (size before relaxing)
 .eh_frame      0x00000000006d4810       0x18 /apps/intel/composer_xe_2013_sp1.2.144/compiler/lib/intel64/libsvml.a(svml_sroundf4_e7la.o)
                                         0x30 (size before relaxing)
 .eh_frame      0x00000000006d4828       0x18 /apps/intel/composer_xe_2013_sp1.2.144/compiler/lib/intel64/libsvml.a(svml_sroundf4_exla.o)
                                         0x30 (size before relaxing)
 .eh_frame      0x00000000006d4840       0x18 /apps/intel/composer_xe_2013_sp1.2.144/compiler/lib/intel64/libsvml.a(svml_sroundf4_h9la.o)
                                         0x30 (size before relaxing)
 .eh_frame      0x00000000006d4858       0x60 /apps/intel/composer_xe_2013_sp1.2.144/compiler/lib/intel64/libirc.a(q2ints.o)
                                         0x78 (size before relaxing)
 .eh_frame      0x00000000006d48b8      0x208 /apps/intel/composer_xe_2013_sp1.2.144/compiler/lib/intel64/libirc.a(tbk_display.o)
                                        0x220 (size before relaxing)
 .eh_frame      0x00000000006d4ac0      0x448 /apps/intel/composer_xe_2013_sp1.2.144/compiler/lib/intel64/libirc.a(tbk_backtrace.o)
                                        0x460 (size before relaxing)
 .eh_frame      0x00000000006d4f08      0x180 /apps/intel/composer_xe_2013_sp1.2.144/compiler/lib/intel64/libirc.a(cpu_feature_disp.o)
                                        0x198 (size before relaxing)
 .eh_frame      0x00000000006d5088       0x18 /apps/intel/composer_xe_2013_sp1.2.144/compiler/lib/intel64/libirc.a(ia32_memcmp.o)
                                         0x30 (size before relaxing)
 .eh_frame      0x00000000006d50a0       0x60 /apps/intel/composer_xe_2013_sp1.2.144/compiler/lib/intel64/libirc.a(fastmemcpy.o)
                                         0x78 (size before relaxing)
 .eh_frame      0x00000000006d5100       0x48 /apps/intel/composer_xe_2013_sp1.2.144/compiler/lib/intel64/libirc.a(fastmemmove.o)
                                         0x60 (size before relaxing)
 .eh_frame      0x00000000006d5148       0x30 /apps/intel/composer_xe_2013_sp1.2.144/compiler/lib/intel64/libirc.a(fastmemset.o)
                                         0x48 (size before relaxing)
 .eh_frame      0x00000000006d5178       0x80 /apps/intel/composer_xe_2013_sp1.2.144/compiler/lib/intel64/libirc.a(new_proc_init.o)
                                         0x98 (size before relaxing)
 .eh_frame      0x00000000006d51f8       0x88 /apps/intel/composer_xe_2013_sp1.2.144/compiler/lib/intel64/libirc.a(sse2_strcspn.o)
                                         0xa0 (size before relaxing)
 .eh_frame      0x00000000006d5280       0x18 /apps/intel/composer_xe_2013_sp1.2.144/compiler/lib/intel64/libirc.a(sse2_strcpy.o)
                                         0x30 (size before relaxing)
 .eh_frame      0x00000000006d5298       0x18 /apps/intel/composer_xe_2013_sp1.2.144/compiler/lib/intel64/libirc.a(sse2_strncpy.o)
                                         0x30 (size before relaxing)
 .eh_frame      0x00000000006d52b0       0x18 /apps/intel/composer_xe_2013_sp1.2.144/compiler/lib/intel64/libirc.a(sse2_strlen.o)
                                         0x30 (size before relaxing)
 .eh_frame      0x00000000006d52c8       0x18 /apps/intel/composer_xe_2013_sp1.2.144/compiler/lib/intel64/libirc.a(sse2_strchr.o)
                                         0x30 (size before relaxing)
 .eh_frame      0x00000000006d52e0       0xf0 /apps/intel/composer_xe_2013_sp1.2.144/compiler/lib/intel64/libirc.a(sse2_strncmp.o)
                                        0x108 (size before relaxing)
 .eh_frame      0x00000000006d53d0       0x58 /apps/intel/composer_xe_2013_sp1.2.144/compiler/lib/intel64/libirc.a(sse2_strcat.o)
                                         0x70 (size before relaxing)
 .eh_frame      0x00000000006d5428       0x58 /apps/intel/composer_xe_2013_sp1.2.144/compiler/lib/intel64/libirc.a(sse2_strncat.o)
                                         0x70 (size before relaxing)
 .eh_frame      0x00000000006d5480       0x18 /apps/intel/composer_xe_2013_sp1.2.144/compiler/lib/intel64/libirc.a(fast_memcpy_pp.o)
                                         0x30 (size before relaxing)
 .eh_frame      0x00000000006d5498       0x18 /apps/intel/composer_xe_2013_sp1.2.144/compiler/lib/intel64/libirc.a(fast_memset_pp.o)
                                         0x30 (size before relaxing)
 .eh_frame      0x00000000006d54b0       0x18 /apps/intel/composer_xe_2013_sp1.2.144/compiler/lib/intel64/libirc.a(intel_ssse3_memcpy.o)
                                         0x30 (size before relaxing)
 .eh_frame      0x00000000006d54c8       0x18 /apps/intel/composer_xe_2013_sp1.2.144/compiler/lib/intel64/libirc.a(intel_ssse3_rep_memcpy.o)
                                         0x30 (size before relaxing)
 .eh_frame      0x00000000006d54e0       0x18 /apps/intel/composer_xe_2013_sp1.2.144/compiler/lib/intel64/libirc.a(intel_ssse3_memmove.o)
                                         0x30 (size before relaxing)
 .eh_frame      0x00000000006d54f8       0x18 /apps/intel/composer_xe_2013_sp1.2.144/compiler/lib/intel64/libirc.a(intel_ssse3_rep_memmove.o)
                                         0x30 (size before relaxing)
 .eh_frame      0x00000000006d5510      0x108 /apps/intel/composer_xe_2013_sp1.2.144/compiler/lib/intel64/libirc.a(irc_msg_support.o)
                                        0x120 (size before relaxing)
 .eh_frame      0x00000000006d5618       0xe0 /apps/intel/composer_xe_2013_sp1.2.144/compiler/lib/intel64/libirc.a(fast_mem_ops.o)
                                         0xf8 (size before relaxing)
 .eh_frame      0x00000000006d56f8       0x68 /apps/intel/composer_xe_2013_sp1.2.144/compiler/lib/intel64/libirc.a(proc_init_utils.o)
                                         0x80 (size before relaxing)
 .eh_frame      0x00000000006d5760       0x60 /usr/lib64/libc_nonshared.a(elf-init.oS)
                                         0x78 (size before relaxing)
 .eh_frame      0x00000000006d57c0        0x4 /usr/lib/gcc/x86_64-redhat-linux/4.8.5/crtend.o

.gcc_except_table
 *(.gcc_except_table .gcc_except_table.*)

.exception_ranges
 *(.exception_ranges .exception_ranges*)
                0x00000000006d57c4                . = (ALIGN (0x200000) - ((0x200000 - .) & 0x1fffff))
                0x00000000008d5820                . = DATA_SEGMENT_ALIGN (0x200000, 0x1000)

.eh_frame
 *(.eh_frame)

.gcc_except_table
 *(.gcc_except_table .gcc_except_table.*)

.exception_ranges
 *(.exception_ranges .exception_ranges*)

.tdata
 *(.tdata .tdata.* .gnu.linkonce.td.*)

.tbss
 *(.tbss .tbss.* .gnu.linkonce.tb.*)
 *(.tcommon)

.preinit_array  0x00000000008d5820        0x0
                [!provide]                        PROVIDE (__preinit_array_start, .)
 *(.preinit_array)
                [!provide]                        PROVIDE (__preinit_array_end, .)

.init_array     0x00000000008d5820       0x10
                0x00000000008d5820                PROVIDE (__init_array_start, .)
 *(SORT(.init_array.*) SORT(.ctors.*))
 *(.init_array EXCLUDE_FILE(*crtend?.o *crtend.o *crtbegin?.o *crtbegin.o) .ctors)
 .init_array    0x00000000008d5820        0x8 /usr/lib/gcc/x86_64-redhat-linux/4.8.5/crtbegin.o
 .ctors         0x00000000008d5828        0x8 /apps/intel/composer_xe_2013_sp1.2.144/compiler/lib/intel64/libirc.a(fast_mem_ops.o)
                0x00000000008d5830                PROVIDE (__init_array_end, .)

.fini_array     0x00000000008d5830        0x8
                [!provide]                        PROVIDE (__fini_array_start, .)
 *(SORT(.fini_array.*) SORT(.dtors.*))
 *(.fini_array EXCLUDE_FILE(*crtend?.o *crtend.o *crtbegin?.o *crtbegin.o) .dtors)
 .fini_array    0x00000000008d5830        0x8 /usr/lib/gcc/x86_64-redhat-linux/4.8.5/crtbegin.o
                [!provide]                        PROVIDE (__fini_array_end, .)

.ctors
 *crtbegin.o(.ctors)
 *crtbegin?.o(.ctors)
 *(EXCLUDE_FILE(*crtend?.o *crtend.o) .ctors)
 *(SORT(.ctors.*))
 *(.ctors)

.dtors
 *crtbegin.o(.dtors)
 *crtbegin?.o(.dtors)
 *(EXCLUDE_FILE(*crtend?.o *crtend.o) .dtors)
 *(SORT(.dtors.*))
 *(.dtors)

.jcr            0x00000000008d5838        0x8
 *(.jcr)
 .jcr           0x00000000008d5838        0x0 /usr/lib/gcc/x86_64-redhat-linux/4.8.5/crtbegin.o
 .jcr           0x00000000008d5838        0x8 /usr/lib/gcc/x86_64-redhat-linux/4.8.5/crtend.o

.data.rel.ro    0x00000000008d5840     0x2520
 *(.data.rel.ro.local* .gnu.linkonce.d.rel.ro.local.*)
 .data.rel.ro.local
                0x00000000008d5840      0x640 /apps/intel/composer_xe_2013_sp1.2.144/compiler/lib/intel64/libifcoremt.a(cvtas_a_to_s.o)
 .data.rel.ro.local
                0x00000000008d5e80      0x640 /apps/intel/composer_xe_2013_sp1.2.144/compiler/lib/intel64/libifcoremt.a(cvtas_a_to_t.o)
 .data.rel.ro.local
                0x00000000008d64c0      0x3a0 /apps/intel/composer_xe_2013_sp1.2.144/compiler/lib/intel64/libifcoremt.a(cvtas_nan_s.o)
 .data.rel.ro.local
                0x00000000008d6860      0x3a0 /apps/intel/composer_xe_2013_sp1.2.144/compiler/lib/intel64/libifcoremt.a(cvtas_nan_t.o)
 .data.rel.ro.local
                0x00000000008d6c00      0x640 /apps/intel/composer_xe_2013_sp1.2.144/compiler/lib/intel64/libifcoremt.a(cvtas_a_to_x.o)
 .data.rel.ro.local
                0x00000000008d7240      0x3a0 /apps/intel/composer_xe_2013_sp1.2.144/compiler/lib/intel64/libifcoremt.a(cvtas_nan_x.o)
 .data.rel.ro.local
                0x00000000008d75e0      0x100 /apps/intel/composer_xe_2013_sp1.2.144/compiler/lib/intel64/libimf.a(libm_error.o)
 .data.rel.ro.local
                0x00000000008d76e0       0x80 /apps/intel/composer_xe_2013_sp1.2.144/compiler/lib/intel64/libirc.a(tbk_backtrace.o)
 .data.rel.ro.local
                0x00000000008d7760      0x180 /apps/intel/composer_xe_2013_sp1.2.144/compiler/lib/intel64/libirc.a(sse2_strcspn.o)
 .data.rel.ro.local
                0x00000000008d78e0      0x3c0 /apps/intel/composer_xe_2013_sp1.2.144/compiler/lib/intel64/libirc.a(irc_msg_support.o)
 *(.data.rel.ro .data.rel.ro.* .gnu.linkonce.d.rel.ro.*)
 .data.rel.ro   0x00000000008d7ca0       0x60 /apps/intel/composer_xe_2013_sp1.2.144/compiler/lib/intel64/libsvml.a(svml_dcos2_la_iface.o)
 .data.rel.ro   0x00000000008d7d00       0x60 /apps/intel/composer_xe_2013_sp1.2.144/compiler/lib/intel64/libsvml.a(svml_sroundf4_la_iface.o)

.dynamic        0x00000000008d7d60      0x260
 *(.dynamic)
 .dynamic       0x00000000008d7d60      0x260 /usr/lib/gcc/x86_64-redhat-linux/4.8.5/../../../../lib64/crt1.o
                0x00000000008d7d60                _DYNAMIC

.got            0x00000000008d7fc0       0x28
 *(.got)
 .got           0x00000000008d7fc0       0x28 /usr/lib/gcc/x86_64-redhat-linux/4.8.5/../../../../lib64/crt1.o
 *(.igot)
                0x00000000008d7fe8                . = DATA_SEGMENT_RELRO_END (., (SIZEOF (.got.plt) >= 0x18)?0x18:0x0)

.got.plt        0x00000000008d8000      0x3a0
 *(.got.plt)
 .got.plt       0x00000000008d8000      0x3a0 /usr/lib/gcc/x86_64-redhat-linux/4.8.5/../../../../lib64/crt1.o
                0x00000000008d8000                _GLOBAL_OFFSET_TABLE_
 *(.igot.plt)
 .igot.plt      0x00000000008d83a0        0x0 /usr/lib/gcc/x86_64-redhat-linux/4.8.5/../../../../lib64/crt1.o

.data           0x00000000008d83a0    0x3a060
 *(.data .data.* .gnu.linkonce.d.*)
 .data          0x00000000008d83a0        0x4 /usr/lib/gcc/x86_64-redhat-linux/4.8.5/../../../../lib64/crt1.o
                0x00000000008d83a0                data_start
                0x00000000008d83a0                __data_start
 .data          0x00000000008d83a4        0x0 /usr/lib/gcc/x86_64-redhat-linux/4.8.5/../../../../lib64/crti.o
 .data          0x00000000008d83a4        0x0 /usr/lib/gcc/x86_64-redhat-linux/4.8.5/crtbegin.o
 .data          0x00000000008d83a4        0x0 /apps/intel/composer_xe_2013_sp1.2.144/compiler/lib/intel64/for_main.o
 *fill*         0x00000000008d83a4        0x4 
 .data          0x00000000008d83a8       0x40 kinds.o
                0x00000000008d83a8                kinds_mp_real_byte_sizes_
                0x00000000008d83b8                kinds_mp_real_kinds_
                0x00000000008d83c8                kinds_mp_integer_byte_sizes_
                0x00000000008d83d8                kinds_mp_integer_types_
 .data          0x00000000008d83e8        0x8 constants.o
                0x00000000008d83e8                constants_mp_constants_initialized_
 *fill*         0x00000000008d83f0       0x10 
 .data          0x00000000008d8400      0xc00 namelist_def.o
                0x00000000008d8400                namelist_def_mp_imp_physics_
                0x00000000008d8420                namelist_def_mp_incvars_to_zero_
                0x00000000008d8800                namelist_def_mp_datapath_
                0x00000000008d8a00                namelist_def_mp_increment_filename_
                0x00000000008d8c00                namelist_def_mp_firstguess_filename_
                0x00000000008d8e00                namelist_def_mp_analysis_filename_
                0x00000000008d8ff8                namelist_def_mp_nens_
 .data          0x00000000008d9000        0x0 variable_interface.o
 .data          0x00000000008d9000     0x2a80 gfs_nems_interface.o
                0x00000000008d9180                gfs_nems_interface_mp_gfile_
                0x00000000008da600                gfs_nems_interface_mp_gfs_nems_vcoord_$BLK.var$1072
 .data          0x00000000008dba80     0x1b20 fv3_interface.o
                0x00000000008dba80                fv3_interface_mp_fg_grid_
                0x00000000008dc200                fv3_interface_mp_an_grid_
                0x00000000008dc980                fv3_interface_mp_meta_nemsio_
 .data          0x00000000008dd5a0        0x0 calc_increment_interface.o
 .data          0x00000000008dd5a0       0x74 /tmp/ifort3qcMiK.o
 *fill*         0x00000000008dd614        0xc 
 .data          0x00000000008dd620    0x28ba0 /scratch3/NCEPDEV/nwprod/lib/nemsio/v2.2.1/libnemsio_v2.2.1.a(nemsio_openclose.o)
                0x00000000008ddba0                nemsio_openclose_mp_machine_endian_
                0x00000000008ddbc0                nemsio_openclose_mp_gribtable_
                0x0000000000905b20                nemsio_openclose_mp_nemsio_setrqst_$BLK.var$5744
 .data          0x00000000009061c0     0x1c00 /scratch3/NCEPDEV/nwprod/lib/nemsio/v2.2.1/libnemsio_v2.2.1.a(nemsio_read.o)
                0x00000000009061e0                nemsio_read_mp_mygfnamep_
                0x00000000009062e0                nemsio_read_mp_mycbuf_
                0x0000000000906340                nemsio_read_mp_nemsio_readrecgrb4w34_$BLK.var$1883
                0x00000000009069e0                nemsio_read_mp_nemsio_readrecvgrb4w34_$BLK.var$1955
                0x0000000000907080                nemsio_read_mp_nemsio_readrecgrb8_$BLK.var$2018
                0x0000000000907720                nemsio_read_mp_nemsio_readrecvgrb8_$BLK.var$2089
 .data          0x0000000000907dc0     0x2880 /scratch3/NCEPDEV/nwprod/lib/nemsio/v2.2.1/libnemsio_v2.2.1.a(nemsio_write.o)
                0x0000000000907e80                nemsio_write_mp_nemsio_writerecgrb4w34_$BLK.var$1637
                0x0000000000908520                nemsio_write_mp_nemsio_writerecgrb4_$BLK.var$1723
                0x0000000000908bc0                nemsio_write_mp_nemsio_writerecgrb8_$BLK.var$1800
                0x0000000000909260                nemsio_write_mp_nemsio_writerecvgrb4w34_$BLK.var$1880
                0x0000000000909900                nemsio_write_mp_nemsio_writerecvgrb4_$BLK.var$1973
                0x0000000000909fa0                nemsio_write_mp_nemsio_writerecvgrb8_$BLK.var$2056
 .data          0x000000000090a640        0x0 /scratch3/NCEPDEV/nwprod/lib/bacio/v2.0.1/libbacio_v2.0.1_4.a(baciof.o)
 .data          0x000000000090a640        0x0 /scratch3/NCEPDEV/nwprod/lib/bacio/v2.0.1/libbacio_v2.0.1_4.a(bafrio.o)
 .data          0x000000000090a640        0x0 /scratch3/NCEPDEV/nwprod/lib/bacio/v2.0.1/libbacio_v2.0.1_4.a(byteswap.o)
 .data          0x000000000090a640        0x0 /scratch3/NCEPDEV/nwprod/lib/bacio/v2.0.1/libbacio_v2.0.1_4.a(chk_endianc.o)
 .data          0x000000000090a640        0x0 /scratch3/NCEPDEV/nwprod/lib/bacio/v2.0.1/libbacio_v2.0.1_4.a(bacio.o)
 .data          0x000000000090a640        0x0 /scratch3/NCEPDEV/nwprod/lib/w3nco/v2.0.6/libw3nco_v2.0.6_4.a(getgbm.o)
 .data          0x000000000090a640       0x38 /scratch3/NCEPDEV/nwprod/lib/w3nco/v2.0.6/libw3nco_v2.0.6_4.a(getgi.o)
 .data          0x000000000090a678        0x0 /scratch3/NCEPDEV/nwprod/lib/w3nco/v2.0.6/libw3nco_v2.0.6_4.a(getgir.o)
 .data          0x000000000090a678        0x0 /scratch3/NCEPDEV/nwprod/lib/w3nco/v2.0.6/libw3nco_v2.0.6_4.a(ixgb.o)
 .data          0x000000000090a678        0x0 /scratch3/NCEPDEV/nwprod/lib/w3nco/v2.0.6/libw3nco_v2.0.6_4.a(lengds.o)
 .data          0x000000000090a678        0x0 /scratch3/NCEPDEV/nwprod/lib/w3nco/v2.0.6/libw3nco_v2.0.6_4.a(putgben.o)
 .data          0x000000000090a678        0x0 /scratch3/NCEPDEV/nwprod/lib/w3nco/v2.0.6/libw3nco_v2.0.6_4.a(r63w72.o)
 .data          0x000000000090a678        0x0 /scratch3/NCEPDEV/nwprod/lib/w3nco/v2.0.6/libw3nco_v2.0.6_4.a(sbytec.o)
 .data          0x000000000090a678        0x0 /scratch3/NCEPDEV/nwprod/lib/w3nco/v2.0.6/libw3nco_v2.0.6_4.a(sbytesc.o)
 .data          0x000000000090a678        0x0 /scratch3/NCEPDEV/nwprod/lib/w3nco/v2.0.6/libw3nco_v2.0.6_4.a(skgb.o)
 .data          0x000000000090a678        0x0 /scratch3/NCEPDEV/nwprod/lib/w3nco/v2.0.6/libw3nco_v2.0.6_4.a(w3fi68.o)
 .data          0x000000000090a678        0x0 /scratch3/NCEPDEV/nwprod/lib/w3nco/v2.0.6/libw3nco_v2.0.6_4.a(w3fi72.o)
 .data          0x000000000090a678        0x0 /scratch3/NCEPDEV/nwprod/lib/w3nco/v2.0.6/libw3nco_v2.0.6_4.a(w3fi73.o)
 .data          0x000000000090a678        0x0 /scratch3/NCEPDEV/nwprod/lib/w3nco/v2.0.6/libw3nco_v2.0.6_4.a(w3fi74.o)
 *fill*         0x000000000090a678        0x8 
 .data          0x000000000090a680      0x180 /scratch3/NCEPDEV/nwprod/lib/w3nco/v2.0.6/libw3nco_v2.0.6_4.a(w3fi75.o)
 .data          0x000000000090a800        0x0 /scratch3/NCEPDEV/nwprod/lib/w3nco/v2.0.6/libw3nco_v2.0.6_4.a(w3fi76.o)
 .data          0x000000000090a800        0x0 /scratch3/NCEPDEV/nwprod/lib/w3nco/v2.0.6/libw3nco_v2.0.6_4.a(w3fi82.o)
 .data          0x000000000090a800        0x0 /scratch3/NCEPDEV/nwprod/lib/w3nco/v2.0.6/libw3nco_v2.0.6_4.a(mova2i.o)
 .data          0x000000000090a800        0x0 /scratch3/NCEPDEV/nwprod/lib/w3nco/v2.0.6/libw3nco_v2.0.6_4.a(gbytec.o)
 .data          0x000000000090a800        0x0 /scratch3/NCEPDEV/nwprod/lib/w3nco/v2.0.6/libw3nco_v2.0.6_4.a(gbytesc.o)
 .data          0x000000000090a800        0x0 /scratch3/NCEPDEV/nwprod/lib/w3nco/v2.0.6/libw3nco_v2.0.6_4.a(getbit.o)
 .data          0x000000000090a800        0x0 /scratch3/NCEPDEV/nwprod/lib/w3nco/v2.0.6/libw3nco_v2.0.6_4.a(getgb1r.o)
 .data          0x000000000090a800        0x0 /scratch3/NCEPDEV/nwprod/lib/w3nco/v2.0.6/libw3nco_v2.0.6_4.a(getgb1s.o)
 .data          0x000000000090a800        0x0 /scratch3/NCEPDEV/nwprod/lib/w3nco/v2.0.6/libw3nco_v2.0.6_4.a(pdsens.o)
 .data          0x000000000090a800        0x0 /scratch3/NCEPDEV/nwprod/lib/w3nco/v2.0.6/libw3nco_v2.0.6_4.a(pdseup.o)
 .data          0x000000000090a800        0x0 /scratch3/NCEPDEV/nwprod/lib/w3nco/v2.0.6/libw3nco_v2.0.6_4.a(w3fi01.o)
 .data          0x000000000090a800        0x0 /scratch3/NCEPDEV/nwprod/lib/w3nco/v2.0.6/libw3nco_v2.0.6_4.a(w3fi58.o)
 .data          0x000000000090a800        0x0 /scratch3/NCEPDEV/nwprod/lib/w3nco/v2.0.6/libw3nco_v2.0.6_4.a(w3fi59.o)
 .data          0x000000000090a800     0x3ea0 /scratch3/NCEPDEV/nwprod/lib/w3nco/v2.0.6/libw3nco_v2.0.6_4.a(w3fi63.o)
 .data          0x000000000090e6a0     0x1000 /scratch3/NCEPDEV/nwprod/lib/w3nco/v2.0.6/libw3nco_v2.0.6_4.a(w3fi71.o)
 .data          0x000000000090f6a0        0x0 /scratch3/NCEPDEV/nwprod/lib/w3nco/v2.0.6/libw3nco_v2.0.6_4.a(w3fi83.o)
 .data          0x000000000090f6a0        0x0 /apps/netcdf/3.6.3-intel/lib/libnetcdf.a(netcdf.o)
 .data          0x000000000090f6a0        0x0 /apps/netcdf/3.6.3-intel/lib/libnetcdf.a(fort-attio.o)
 .data          0x000000000090f6a0        0x0 /apps/netcdf/3.6.3-intel/lib/libnetcdf.a(fort-control.o)
 .data          0x000000000090f6a0        0x0 /apps/netcdf/3.6.3-intel/lib/libnetcdf.a(fort-dim.o)
 .data          0x000000000090f6a0        0x0 /apps/netcdf/3.6.3-intel/lib/libnetcdf.a(fort-genatt.o)
 .data          0x000000000090f6a0        0x0 /apps/netcdf/3.6.3-intel/lib/libnetcdf.a(fort-geninq.o)
 .data          0x000000000090f6a0        0x0 /apps/netcdf/3.6.3-intel/lib/libnetcdf.a(fort-genvar.o)
 .data          0x000000000090f6a0        0x0 /apps/netcdf/3.6.3-intel/lib/libnetcdf.a(fort-lib.o)
 .data          0x000000000090f6a0        0x0 /apps/netcdf/3.6.3-intel/lib/libnetcdf.a(fort-misc.o)
 .data          0x000000000090f6a0        0x0 /apps/netcdf/3.6.3-intel/lib/libnetcdf.a(fort-var1io.o)
 .data          0x000000000090f6a0        0x0 /apps/netcdf/3.6.3-intel/lib/libnetcdf.a(fort-varaio.o)
 .data          0x000000000090f6a0        0x0 /apps/netcdf/3.6.3-intel/lib/libnetcdf.a(fort-varmio.o)
 .data          0x000000000090f6a0        0x0 /apps/netcdf/3.6.3-intel/lib/libnetcdf.a(fort-varsio.o)
 .data          0x000000000090f6a0        0x0 /apps/netcdf/3.6.3-intel/lib/libnetcdf.a(attr.o)
 .data          0x000000000090f6a0        0x0 /apps/netcdf/3.6.3-intel/lib/libnetcdf.a(ncx.o)
 .data          0x000000000090f6a0        0x0 /apps/netcdf/3.6.3-intel/lib/libnetcdf.a(putget.o)
 .data          0x000000000090f6a0        0x0 /apps/netcdf/3.6.3-intel/lib/libnetcdf.a(dim.o)
 .data          0x000000000090f6a0        0xe /apps/netcdf/3.6.3-intel/lib/libnetcdf.a(error.o)
 *fill*         0x000000000090f6ae        0x2 
 .data          0x000000000090f6b0        0x0 /apps/netcdf/3.6.3-intel/lib/libnetcdf.a(libvers.o)
 .data          0x000000000090f6b0        0x4 /apps/netcdf/3.6.3-intel/lib/libnetcdf.a(nc.o)
                0x000000000090f6b0                default_create_format
 .data          0x000000000090f6b4        0x0 /apps/netcdf/3.6.3-intel/lib/libnetcdf.a(string.o)
 .data          0x000000000090f6b4        0x0 /apps/netcdf/3.6.3-intel/lib/libnetcdf.a(v1hpg.o)
 .data          0x000000000090f6b4        0x0 /apps/netcdf/3.6.3-intel/lib/libnetcdf.a(var.o)
 .data          0x000000000090f6b4        0x0 /apps/netcdf/3.6.3-intel/lib/libnetcdf.a(utf8proc.o)
 .data          0x000000000090f6b4        0x0 /apps/netcdf/3.6.3-intel/lib/libnetcdf.a(posixio.o)
 .data          0x000000000090f6b4        0x0 /apps/intel/composer_xe_2013_sp1.2.144/compiler/lib/intel64/libifcoremt.a(for_close.o)
 .data          0x000000000090f6b4        0x0 /apps/intel/composer_xe_2013_sp1.2.144/compiler/lib/intel64/libifcoremt.a(for_close_proc.o)
 .data          0x000000000090f6b4        0x0 /apps/intel/composer_xe_2013_sp1.2.144/compiler/lib/intel64/libifcoremt.a(for_contig_array.o)
 .data          0x000000000090f6b4        0x0 /apps/intel/composer_xe_2013_sp1.2.144/compiler/lib/intel64/libifcoremt.a(for_desc_item.o)
 *fill*         0x000000000090f6b4        0xc 
 .data          0x000000000090f6c0     0x1de0 /apps/intel/composer_xe_2013_sp1.2.144/compiler/lib/intel64/libifcoremt.a(for_diags_intel.o)
 .data          0x00000000009114a0        0x0 /apps/intel/composer_xe_2013_sp1.2.144/compiler/lib/intel64/libifcoremt.a(for_exit_handler.o)
 .data          0x00000000009114a0       0x10 /apps/intel/composer_xe_2013_sp1.2.144/compiler/lib/intel64/libifcoremt.a(for_init.o)
                0x00000000009114a0                for__segv_default_msg
                0x00000000009114a8                for__l_current_arg
 .data          0x00000000009114b0        0x0 /apps/intel/composer_xe_2013_sp1.2.144/compiler/lib/intel64/libifcoremt.a(for_inquire.o)
 .data          0x00000000009114b0        0x0 /apps/intel/composer_xe_2013_sp1.2.144/compiler/lib/intel64/libifcoremt.a(for_io_util.o)
 .data          0x00000000009114b0        0xc /apps/intel/composer_xe_2013_sp1.2.144/compiler/lib/intel64/libifcoremt.a(for_lub_mgt.o)
 .data          0x00000000009114bc        0x0 /apps/intel/composer_xe_2013_sp1.2.144/compiler/lib/intel64/libifcoremt.a(for_need_lf.o)
 .data          0x00000000009114bc        0x0 /apps/intel/composer_xe_2013_sp1.2.144/compiler/lib/intel64/libifcoremt.a(for_open.o)
 .data          0x00000000009114bc        0x0 /apps/intel/composer_xe_2013_sp1.2.144/compiler/lib/intel64/libifcoremt.a(for_preconnected_units_init.o)
 .data          0x00000000009114bc        0x0 /apps/intel/composer_xe_2013_sp1.2.144/compiler/lib/intel64/libifcoremt.a(for_put.o)
 *fill*         0x00000000009114bc        0x4 
 .data          0x00000000009114c0      0x140 /apps/intel/composer_xe_2013_sp1.2.144/compiler/lib/intel64/libifcoremt.a(for_reentrancy.o)
                0x00000000009114c0                for__static_threadstor_private
                0x00000000009115f0                for__reentrancy_mode
 .data          0x0000000000911600        0x0 /apps/intel/composer_xe_2013_sp1.2.144/compiler/lib/intel64/libifcoremt.a(for_rint_fmt.o)
 .data          0x0000000000911600        0x0 /apps/intel/composer_xe_2013_sp1.2.144/compiler/lib/intel64/libifcoremt.a(for_rseq_nml.o)
 .data          0x0000000000911600       0x80 /apps/intel/composer_xe_2013_sp1.2.144/compiler/lib/intel64/libifcoremt.a(for_stop.o)
 .data          0x0000000000911680        0x0 /apps/intel/composer_xe_2013_sp1.2.144/compiler/lib/intel64/libifcoremt.a(for_vm.o)
 .data          0x0000000000911680        0x0 /apps/intel/composer_xe_2013_sp1.2.144/compiler/lib/intel64/libifcoremt.a(for_wint_fmt.o)
 .data          0x0000000000911680        0x0 /apps/intel/composer_xe_2013_sp1.2.144/compiler/lib/intel64/libifcoremt.a(for_wseq.o)
 .data          0x0000000000911680        0x0 /apps/intel/composer_xe_2013_sp1.2.144/compiler/lib/intel64/libifcoremt.a(for_wseq_fmt.o)
 .data          0x0000000000911680        0x0 /apps/intel/composer_xe_2013_sp1.2.144/compiler/lib/intel64/libifcoremt.a(for_wseq_lis.o)
 .data          0x0000000000911680        0x0 /apps/intel/composer_xe_2013_sp1.2.144/compiler/lib/intel64/libifcoremt.a(for_wseq_nml.o)
 .data          0x0000000000911680        0x0 /apps/intel/composer_xe_2013_sp1.2.144/compiler/lib/intel64/libifcoremt.a(for_90_adjust.o)
 .data          0x0000000000911680        0x0 /apps/intel/composer_xe_2013_sp1.2.144/compiler/lib/intel64/libifcoremt.a(for_90_trim.o)
 .data          0x0000000000911680        0x0 /apps/intel/composer_xe_2013_sp1.2.144/compiler/lib/intel64/libifcoremt.a(for_f90str.o)
 .data          0x0000000000911680        0x0 /apps/intel/composer_xe_2013_sp1.2.144/compiler/lib/intel64/libifcoremt.a(tbk_traceback.o)
 .data          0x0000000000911680        0x4 /apps/intel/composer_xe_2013_sp1.2.144/compiler/lib/intel64/libifcoremt.a(for_aio.o)
 .data          0x0000000000911684        0x0 /apps/intel/composer_xe_2013_sp1.2.144/compiler/lib/intel64/libifcoremt.a(for_open_proc.o)
 .data          0x0000000000911684        0x0 /apps/intel/composer_xe_2013_sp1.2.144/compiler/lib/intel64/libifcoremt.a(for_aio_wrap.o)
 .data          0x0000000000911684        0x0 /apps/intel/composer_xe_2013_sp1.2.144/compiler/lib/intel64/libifcoremt.a(cvt_vax_f.o)
 .data          0x0000000000911684        0x0 /apps/intel/composer_xe_2013_sp1.2.144/compiler/lib/intel64/libifcoremt.a(cvt_vax_d.o)
 .data          0x0000000000911684        0x0 /apps/intel/composer_xe_2013_sp1.2.144/compiler/lib/intel64/libifcoremt.a(cvt_vax_g.o)
 .data          0x0000000000911684        0x0 /apps/intel/composer_xe_2013_sp1.2.144/compiler/lib/intel64/libifcoremt.a(cvt_cray.o)
 .data          0x0000000000911684        0x0 /apps/intel/composer_xe_2013_sp1.2.144/compiler/lib/intel64/libifcoremt.a(cvt_ibm_short.o)
 .data          0x0000000000911684        0x0 /apps/intel/composer_xe_2013_sp1.2.144/compiler/lib/intel64/libifcoremt.a(cvt_ibm_long.o)
 .data          0x0000000000911684        0x0 /apps/intel/composer_xe_2013_sp1.2.144/compiler/lib/intel64/libifcoremt.a(cvt_ieee_double.o)
 .data          0x0000000000911684        0x0 /apps/intel/composer_xe_2013_sp1.2.144/compiler/lib/intel64/libifcoremt.a(cvt_ieee_single.o)
 .data          0x0000000000911684        0x0 /apps/intel/composer_xe_2013_sp1.2.144/compiler/lib/intel64/libifcoremt.a(for_common_inquire.o)
 .data          0x0000000000911684        0x0 /apps/intel/composer_xe_2013_sp1.2.144/compiler/lib/intel64/libifcoremt.a(for_default_io_sizes_env_init.o)
 .data          0x0000000000911684        0x0 /apps/intel/composer_xe_2013_sp1.2.144/compiler/lib/intel64/libifcoremt.a(for_exit.o)
 .data          0x0000000000911684        0x0 /apps/intel/composer_xe_2013_sp1.2.144/compiler/lib/intel64/libifcoremt.a(for_fmt_comp.o)
 .data          0x0000000000911684        0x0 /apps/intel/composer_xe_2013_sp1.2.144/compiler/lib/intel64/libifcoremt.a(for_fmt_val.o)
 .data          0x0000000000911684        0x0 /apps/intel/composer_xe_2013_sp1.2.144/compiler/lib/intel64/libifcoremt.a(for_get.o)
 .data          0x0000000000911684        0x0 /apps/intel/composer_xe_2013_sp1.2.144/compiler/lib/intel64/libifcoremt.a(for_intrp_fmt.o)
 .data          0x0000000000911684        0x0 /apps/intel/composer_xe_2013_sp1.2.144/compiler/lib/intel64/libifcoremt.a(for_ldir_wfs.o)
 .data          0x0000000000911684        0x4 /apps/intel/composer_xe_2013_sp1.2.144/compiler/lib/intel64/libifcoremt.a(for_rint_lis.o)
 .data          0x0000000000911688        0x4 /apps/intel/composer_xe_2013_sp1.2.144/compiler/lib/intel64/libifcoremt.a(for_rseq_lis.o)
 .data          0x000000000091168c        0x0 /apps/intel/composer_xe_2013_sp1.2.144/compiler/lib/intel64/libifcoremt.a(cvt__globals.o)
 .data          0x000000000091168c        0x0 /apps/intel/composer_xe_2013_sp1.2.144/compiler/lib/intel64/libifcoremt.a(cvt_int_to_text.o)
 .data          0x000000000091168c        0x0 /apps/intel/composer_xe_2013_sp1.2.144/compiler/lib/intel64/libifcoremt.a(cvt_data_to_text.o)
 .data          0x000000000091168c        0x0 /apps/intel/composer_xe_2013_sp1.2.144/compiler/lib/intel64/libifcoremt.a(cvt_log_to_text.o)
 .data          0x000000000091168c        0x0 /apps/intel/composer_xe_2013_sp1.2.144/compiler/lib/intel64/libifcoremt.a(cvt_text_to_int.o)
 .data          0x000000000091168c        0x0 /apps/intel/composer_xe_2013_sp1.2.144/compiler/lib/intel64/libifcoremt.a(cvt_text_to_data.o)
 .data          0x000000000091168c        0x0 /apps/intel/composer_xe_2013_sp1.2.144/compiler/lib/intel64/libifcoremt.a(cvt_text_to_log.o)
 .data          0x000000000091168c        0x0 /apps/intel/composer_xe_2013_sp1.2.144/compiler/lib/intel64/libifcoremt.a(cvt_cvtas_t.o)
 .data          0x000000000091168c        0x0 /apps/intel/composer_xe_2013_sp1.2.144/compiler/lib/intel64/libifcoremt.a(cvt_cvtas_s.o)
 .data          0x000000000091168c        0x0 /apps/intel/composer_xe_2013_sp1.2.144/compiler/lib/intel64/libifcoremt.a(cvt_cvtas_x.o)
 .data          0x000000000091168c        0x0 /apps/intel/composer_xe_2013_sp1.2.144/compiler/lib/intel64/libifcoremt.a(cvtas_a_to_s.o)
 .data          0x000000000091168c        0x0 /apps/intel/composer_xe_2013_sp1.2.144/compiler/lib/intel64/libifcoremt.a(cvtas_a_to_t.o)
 .data          0x000000000091168c        0x0 /apps/intel/composer_xe_2013_sp1.2.144/compiler/lib/intel64/libifcoremt.a(cvtas_s_to_a.o)
 .data          0x000000000091168c        0x0 /apps/intel/composer_xe_2013_sp1.2.144/compiler/lib/intel64/libifcoremt.a(cvtas_t_to_a.o)
 .data          0x000000000091168c        0x0 /apps/intel/composer_xe_2013_sp1.2.144/compiler/lib/intel64/libifcoremt.a(cvtas_nan_s.o)
 .data          0x000000000091168c        0x0 /apps/intel/composer_xe_2013_sp1.2.144/compiler/lib/intel64/libifcoremt.a(cvtas_nan_t.o)
 .data          0x000000000091168c        0x0 /apps/intel/composer_xe_2013_sp1.2.144/compiler/lib/intel64/libifcoremt.a(cvtas_a_to_x.o)
 .data          0x000000000091168c        0x0 /apps/intel/composer_xe_2013_sp1.2.144/compiler/lib/intel64/libifcoremt.a(cvtas_x_to_a.o)
 .data          0x000000000091168c        0x0 /apps/intel/composer_xe_2013_sp1.2.144/compiler/lib/intel64/libifcoremt.a(cvtas_nan_x.o)
 .data          0x000000000091168c        0x0 /apps/intel/composer_xe_2013_sp1.2.144/compiler/lib/intel64/libifcoremt.a(cvtas_globals.o)
 .data          0x000000000091168c        0x0 /apps/intel/composer_xe_2013_sp1.2.144/compiler/lib/intel64/libifcoremt.a(cvtas_pow_ten_53.o)
 .data          0x000000000091168c        0x0 /apps/intel/composer_xe_2013_sp1.2.144/compiler/lib/intel64/libifcoremt.a(cvtas_pow_ten_64.o)
 .data          0x000000000091168c        0x0 /apps/intel/composer_xe_2013_sp1.2.144/compiler/lib/intel64/libifcoremt.a(cvtas_pow_ten_128.o)
 .data          0x000000000091168c        0x0 /apps/intel/composer_xe_2013_sp1.2.144/compiler/lib/intel64/libimf.a(asinf_stub.o)
 .data          0x000000000091168c        0x0 /apps/intel/composer_xe_2013_sp1.2.144/compiler/lib/intel64/libimf.a(asin.o)
 .data          0x000000000091168c        0x0 /apps/intel/composer_xe_2013_sp1.2.144/compiler/lib/intel64/libimf.a(fetestexcept.o)
 .data          0x000000000091168c        0x0 /apps/intel/composer_xe_2013_sp1.2.144/compiler/lib/intel64/libimf.a(f__powi4i4.o)
 .data          0x000000000091168c        0x0 /apps/intel/composer_xe_2013_sp1.2.144/compiler/lib/intel64/libimf.a(f__powr4i4.o)
 *fill*         0x000000000091168c       0x14 
 .data          0x00000000009116a0      0x3c0 /apps/intel/composer_xe_2013_sp1.2.144/compiler/lib/intel64/libimf.a(libm_error.o)
                0x0000000000911a40                __libm_pmatherrf
                0x0000000000911a48                __libm_pmatherr
                0x0000000000911a50                __libm_pmatherrl
                0x0000000000911a5c                _LIB_VERSIONIMF
 .data          0x0000000000911a60        0x0 /apps/intel/composer_xe_2013_sp1.2.144/compiler/lib/intel64/libimf.a(log10f_stub.o)
 .data          0x0000000000911a60        0x0 /apps/intel/composer_xe_2013_sp1.2.144/compiler/lib/intel64/libimf.a(log10_stub.o)
 .data          0x0000000000911a60        0x0 /apps/intel/composer_xe_2013_sp1.2.144/compiler/lib/intel64/libimf.a(logf_stub.o)
 .data          0x0000000000911a60        0x0 /apps/intel/composer_xe_2013_sp1.2.144/compiler/lib/intel64/libimf.a(matherrf.o)
 .data          0x0000000000911a60        0x0 /apps/intel/composer_xe_2013_sp1.2.144/compiler/lib/intel64/libimf.a(matherrl.o)
 .data          0x0000000000911a60        0x0 /apps/intel/composer_xe_2013_sp1.2.144/compiler/lib/intel64/libimf.a(matherr.o)
 .data          0x0000000000911a60        0x0 /apps/intel/composer_xe_2013_sp1.2.144/compiler/lib/intel64/libimf.a(asinf_ct.o)
 .data          0x0000000000911a60        0x0 /apps/intel/composer_xe_2013_sp1.2.144/compiler/lib/intel64/libimf.a(asinf_gen.o)
 .data          0x0000000000911a60        0x0 /apps/intel/composer_xe_2013_sp1.2.144/compiler/lib/intel64/libimf.a(log10_ct.o)
 .data          0x0000000000911a60        0x0 /apps/intel/composer_xe_2013_sp1.2.144/compiler/lib/intel64/libimf.a(log10f_ct.o)
 .data          0x0000000000911a60        0x0 /apps/intel/composer_xe_2013_sp1.2.144/compiler/lib/intel64/libimf.a(log10f_gen.o)
 .data          0x0000000000911a60        0x0 /apps/intel/composer_xe_2013_sp1.2.144/compiler/lib/intel64/libimf.a(log10_gen.o)
 .data          0x0000000000911a60        0x0 /apps/intel/composer_xe_2013_sp1.2.144/compiler/lib/intel64/libimf.a(logf_ct.o)
 .data          0x0000000000911a60        0x0 /apps/intel/composer_xe_2013_sp1.2.144/compiler/lib/intel64/libimf.a(logf_gen.o)
 .data          0x0000000000911a60        0x0 /apps/intel/composer_xe_2013_sp1.2.144/compiler/lib/intel64/libimf.a(logf_table.o)
 .data          0x0000000000911a60        0x0 /apps/intel/composer_xe_2013_sp1.2.144/compiler/lib/intel64/libimf.a(rcp_table.o)
 .data          0x0000000000911a60        0x8 /apps/intel/composer_xe_2013_sp1.2.144/compiler/lib/intel64/libsvml.a(svml_dcos2_la_iface.o)
 .data          0x0000000000911a68        0x0 /apps/intel/composer_xe_2013_sp1.2.144/compiler/lib/intel64/libsvml.a(svml_dcos2_y8la.o)
 .data          0x0000000000911a68        0x8 /apps/intel/composer_xe_2013_sp1.2.144/compiler/lib/intel64/libsvml.a(svml_sroundf4_la_iface.o)
 .data          0x0000000000911a70        0x0 /apps/intel/composer_xe_2013_sp1.2.144/compiler/lib/intel64/libsvml.a(svml_sroundf4_y8la.o)
 .data          0x0000000000911a70        0x0 /apps/intel/composer_xe_2013_sp1.2.144/compiler/lib/intel64/libsvml.a(svml_d_feature_flag_.o)
 .data          0x0000000000911a70        0x0 /apps/intel/composer_xe_2013_sp1.2.144/compiler/lib/intel64/libsvml.a(svml_dcos2_e7la.o)
 .data          0x0000000000911a70        0x0 /apps/intel/composer_xe_2013_sp1.2.144/compiler/lib/intel64/libsvml.a(svml_dcos2_exla.o)
 .data          0x0000000000911a70        0x0 /apps/intel/composer_xe_2013_sp1.2.144/compiler/lib/intel64/libsvml.a(svml_dcos2_h9la.o)
 .data          0x0000000000911a70        0x0 /apps/intel/composer_xe_2013_sp1.2.144/compiler/lib/intel64/libsvml.a(svml_s_round_data_exla.o)
 .data          0x0000000000911a70        0x0 /apps/intel/composer_xe_2013_sp1.2.144/compiler/lib/intel64/libsvml.a(svml_sroundf4_e7la.o)
 .data          0x0000000000911a70        0x0 /apps/intel/composer_xe_2013_sp1.2.144/compiler/lib/intel64/libsvml.a(svml_sroundf4_exla.o)
 .data          0x0000000000911a70        0x0 /apps/intel/composer_xe_2013_sp1.2.144/compiler/lib/intel64/libsvml.a(svml_sroundf4_h9la.o)
 .data          0x0000000000911a70        0x0 /apps/intel/composer_xe_2013_sp1.2.144/compiler/lib/intel64/libirc.a(q2ints.o)
 .data          0x0000000000911a70        0x0 /apps/intel/composer_xe_2013_sp1.2.144/compiler/lib/intel64/libirc.a(tbk_display.o)
 .data          0x0000000000911a70        0x0 /apps/intel/composer_xe_2013_sp1.2.144/compiler/lib/intel64/libirc.a(tbk_backtrace.o)
 .data          0x0000000000911a70        0x0 /apps/intel/composer_xe_2013_sp1.2.144/compiler/lib/intel64/libirc.a(cpu_feature_disp.o)
 .data          0x0000000000911a70        0x0 /apps/intel/composer_xe_2013_sp1.2.144/compiler/lib/intel64/libirc.a(ia32_memcmp.o)
 .data          0x0000000000911a70        0x0 /apps/intel/composer_xe_2013_sp1.2.144/compiler/lib/intel64/libirc.a(fastmemcpy.o)
 .data          0x0000000000911a70        0x0 /apps/intel/composer_xe_2013_sp1.2.144/compiler/lib/intel64/libirc.a(fastmemmove.o)
 .data          0x0000000000911a70        0x0 /apps/intel/composer_xe_2013_sp1.2.144/compiler/lib/intel64/libirc.a(fastmemset.o)
 *fill*         0x0000000000911a70       0x10 
 .data          0x0000000000911a80      0x140 /apps/intel/composer_xe_2013_sp1.2.144/compiler/lib/intel64/libirc.a(new_proc_init.o)
 .data          0x0000000000911bc0        0x0 /apps/intel/composer_xe_2013_sp1.2.144/compiler/lib/intel64/libirc.a(sse2_strcspn.o)
 .data          0x0000000000911bc0        0x0 /apps/intel/composer_xe_2013_sp1.2.144/compiler/lib/intel64/libirc.a(sse2_strcpy.o)
 .data          0x0000000000911bc0        0x0 /apps/intel/composer_xe_2013_sp1.2.144/compiler/lib/intel64/libirc.a(sse2_strncpy.o)
 .data          0x0000000000911bc0        0x0 /apps/intel/composer_xe_2013_sp1.2.144/compiler/lib/intel64/libirc.a(sse2_strlen.o)
 .data          0x0000000000911bc0        0x0 /apps/intel/composer_xe_2013_sp1.2.144/compiler/lib/intel64/libirc.a(sse2_strchr.o)
 .data          0x0000000000911bc0        0x0 /apps/intel/composer_xe_2013_sp1.2.144/compiler/lib/intel64/libirc.a(sse2_strncmp.o)
 .data          0x0000000000911bc0        0x0 /apps/intel/composer_xe_2013_sp1.2.144/compiler/lib/intel64/libirc.a(sse2_strcat.o)
 .data          0x0000000000911bc0        0x0 /apps/intel/composer_xe_2013_sp1.2.144/compiler/lib/intel64/libirc.a(sse2_strncat.o)
 .data          0x0000000000911bc0        0x0 /apps/intel/composer_xe_2013_sp1.2.144/compiler/lib/intel64/libirc.a(fast_memcpy_pp.o)
 .data          0x0000000000911bc0        0x0 /apps/intel/composer_xe_2013_sp1.2.144/compiler/lib/intel64/libirc.a(fast_memset_pp.o)
 .data          0x0000000000911bc0        0x0 /apps/intel/composer_xe_2013_sp1.2.144/compiler/lib/intel64/libirc.a(intel_ssse3_memcpy.o)
 .data          0x0000000000911bc0        0x0 /apps/intel/composer_xe_2013_sp1.2.144/compiler/lib/intel64/libirc.a(intel_ssse3_rep_memcpy.o)
 .data          0x0000000000911bc0        0x0 /apps/intel/composer_xe_2013_sp1.2.144/compiler/lib/intel64/libirc.a(intel_ssse3_memmove.o)
 .data          0x0000000000911bc0        0x0 /apps/intel/composer_xe_2013_sp1.2.144/compiler/lib/intel64/libirc.a(intel_ssse3_rep_memmove.o)
 .data          0x0000000000911bc0        0x8 /apps/intel/composer_xe_2013_sp1.2.144/compiler/lib/intel64/libirc.a(irc_msg_support.o)
 *fill*         0x0000000000911bc8       0x18 
 .data          0x0000000000911be0      0x820 /apps/intel/composer_xe_2013_sp1.2.144/compiler/lib/intel64/libirc.a(fast_mem_ops.o)
                0x00000000009123e0                __libirc_largest_cache_size
                0x00000000009123e4                __libirc_largest_cache_size_half
                0x00000000009123e8                __libirc_data_cache_size
                0x00000000009123ec                __libirc_data_cache_size_half
 .data          0x0000000000912400        0x0 /apps/intel/composer_xe_2013_sp1.2.144/compiler/lib/intel64/libirc.a(proc_init_utils.o)
 .data          0x0000000000912400        0x0 /usr/lib64/libc_nonshared.a(elf-init.oS)
 .data          0x0000000000912400        0x0 /usr/lib/gcc/x86_64-redhat-linux/4.8.5/crtend.o
 .data          0x0000000000912400        0x0 /usr/lib/gcc/x86_64-redhat-linux/4.8.5/../../../../lib64/crtn.o

.tm_clone_table
                0x0000000000912400        0x0
 .tm_clone_table
                0x0000000000912400        0x0 /usr/lib/gcc/x86_64-redhat-linux/4.8.5/crtbegin.o
 .tm_clone_table
                0x0000000000912400        0x0 /usr/lib/gcc/x86_64-redhat-linux/4.8.5/crtend.o

.data1
 *(.data1)
                0x0000000000912400                _edata = .
                [!provide]                        PROVIDE (edata, .)
                0x0000000000912400                . = .
                0x0000000000912400                __bss_start = .

.bss            0x0000000000912400   0x640320
 *(.dynbss)
 .dynbss        0x0000000000912400       0x18 /usr/lib/gcc/x86_64-redhat-linux/4.8.5/../../../../lib64/crt1.o
                0x0000000000912400                stdin@@GLIBC_2.2.5
                0x0000000000912408                stderr@@GLIBC_2.2.5
                0x0000000000912410                stdout@@GLIBC_2.2.5
 *(.bss .bss.* .gnu.linkonce.b.*)
 .bss           0x0000000000912418        0x0 /usr/lib/gcc/x86_64-redhat-linux/4.8.5/../../../../lib64/crt1.o
 .bss           0x0000000000912418        0x0 /usr/lib/gcc/x86_64-redhat-linux/4.8.5/../../../../lib64/crti.o
 .bss           0x0000000000912418        0x1 /usr/lib/gcc/x86_64-redhat-linux/4.8.5/crtbegin.o
 *fill*         0x0000000000912419        0x3 
 .bss           0x000000000091241c        0x0 /apps/intel/composer_xe_2013_sp1.2.144/compiler/lib/intel64/for_main.o
 .bss           0x000000000091241c        0x0 kinds.o
 .bss           0x000000000091241c        0x0 constants.o
 *fill*         0x000000000091241c        0x4 
 .bss           0x0000000000912420       0x18 namelist_def.o
                0x0000000000912428                namelist_def_mp_do_icmr_
                0x0000000000912430                namelist_def_mp_debug_
 .bss           0x0000000000912438        0x0 variable_interface.o
 .bss           0x0000000000912438        0x0 gfs_nems_interface.o
 .bss           0x0000000000912438        0x4 fv3_interface.o
 .bss           0x000000000091243c        0x0 calc_increment_interface.o
 .bss           0x000000000091243c        0x0 /tmp/ifort3qcMiK.o
 *fill*         0x000000000091243c        0x4 
 .bss           0x0000000000912440     0x5ac0 /scratch3/NCEPDEV/nwprod/lib/nemsio/v2.2.1/libnemsio_v2.2.1.a(nemsio_openclose.o)
                0x0000000000916da0                nemsio_openclose_mp_fileunit_
 .bss           0x0000000000917f00     0x1920 /scratch3/NCEPDEV/nwprod/lib/nemsio/v2.2.1/libnemsio_v2.2.1.a(nemsio_read.o)
 .bss           0x0000000000919820        0x8 /scratch3/NCEPDEV/nwprod/lib/nemsio/v2.2.1/libnemsio_v2.2.1.a(nemsio_write.o)
 *fill*         0x0000000000919828       0x18 
 .bss           0x0000000000919840     0xdf00 /scratch3/NCEPDEV/nwprod/lib/bacio/v2.0.1/libbacio_v2.0.1_4.a(baciof.o)
                0x0000000000919840                bacio_module_mp_baopts_
                0x00000000009198a0                bacio_module_mp_fd_
 .bss           0x0000000000927740       0x20 /scratch3/NCEPDEV/nwprod/lib/bacio/v2.0.1/libbacio_v2.0.1_4.a(bafrio.o)
 .bss           0x0000000000927760        0x0 /scratch3/NCEPDEV/nwprod/lib/bacio/v2.0.1/libbacio_v2.0.1_4.a(byteswap.o)
 .bss           0x0000000000927760        0x0 /scratch3/NCEPDEV/nwprod/lib/bacio/v2.0.1/libbacio_v2.0.1_4.a(chk_endianc.o)
 .bss           0x0000000000927760        0x0 /scratch3/NCEPDEV/nwprod/lib/bacio/v2.0.1/libbacio_v2.0.1_4.a(bacio.o)
 .bss           0x0000000000927760      0x640 /scratch3/NCEPDEV/nwprod/lib/w3nco/v2.0.6/libw3nco_v2.0.6_4.a(getgbm.o)
 .bss           0x0000000000927da0       0xc0 /scratch3/NCEPDEV/nwprod/lib/w3nco/v2.0.6/libw3nco_v2.0.6_4.a(getgi.o)
 .bss           0x0000000000927e60        0x0 /scratch3/NCEPDEV/nwprod/lib/w3nco/v2.0.6/libw3nco_v2.0.6_4.a(getgir.o)
 *fill*         0x0000000000927e60       0x20 
 .bss           0x0000000000927e80      0x280 /scratch3/NCEPDEV/nwprod/lib/w3nco/v2.0.6/libw3nco_v2.0.6_4.a(ixgb.o)
 .bss           0x0000000000928100        0x0 /scratch3/NCEPDEV/nwprod/lib/w3nco/v2.0.6/libw3nco_v2.0.6_4.a(lengds.o)
 .bss           0x0000000000928100      0xb00 /scratch3/NCEPDEV/nwprod/lib/w3nco/v2.0.6/libw3nco_v2.0.6_4.a(putgben.o)
 .bss           0x0000000000928c00        0x0 /scratch3/NCEPDEV/nwprod/lib/w3nco/v2.0.6/libw3nco_v2.0.6_4.a(r63w72.o)
 .bss           0x0000000000928c00        0x0 /scratch3/NCEPDEV/nwprod/lib/w3nco/v2.0.6/libw3nco_v2.0.6_4.a(sbytec.o)
 .bss           0x0000000000928c00        0x0 /scratch3/NCEPDEV/nwprod/lib/w3nco/v2.0.6/libw3nco_v2.0.6_4.a(sbytesc.o)
 .bss           0x0000000000928c00       0xa0 /scratch3/NCEPDEV/nwprod/lib/w3nco/v2.0.6/libw3nco_v2.0.6_4.a(skgb.o)
 .bss           0x0000000000928ca0        0x0 /scratch3/NCEPDEV/nwprod/lib/w3nco/v2.0.6/libw3nco_v2.0.6_4.a(w3fi68.o)
 .bss           0x0000000000928ca0       0xe0 /scratch3/NCEPDEV/nwprod/lib/w3nco/v2.0.6/libw3nco_v2.0.6_4.a(w3fi72.o)
 .bss           0x0000000000928d80        0x0 /scratch3/NCEPDEV/nwprod/lib/w3nco/v2.0.6/libw3nco_v2.0.6_4.a(w3fi73.o)
 .bss           0x0000000000928d80        0x0 /scratch3/NCEPDEV/nwprod/lib/w3nco/v2.0.6/libw3nco_v2.0.6_4.a(w3fi74.o)
 .bss           0x0000000000928d80   0x32d8c0 /scratch3/NCEPDEV/nwprod/lib/w3nco/v2.0.6/libw3nco_v2.0.6_4.a(w3fi75.o)
 .bss           0x0000000000c56640        0x0 /scratch3/NCEPDEV/nwprod/lib/w3nco/v2.0.6/libw3nco_v2.0.6_4.a(w3fi76.o)
 .bss           0x0000000000c56640      0x4c0 /scratch3/NCEPDEV/nwprod/lib/w3nco/v2.0.6/libw3nco_v2.0.6_4.a(w3fi82.o)
 .bss           0x0000000000c56b00        0x0 /scratch3/NCEPDEV/nwprod/lib/w3nco/v2.0.6/libw3nco_v2.0.6_4.a(mova2i.o)
 .bss           0x0000000000c56b00        0x0 /scratch3/NCEPDEV/nwprod/lib/w3nco/v2.0.6/libw3nco_v2.0.6_4.a(gbytec.o)
 .bss           0x0000000000c56b00        0x0 /scratch3/NCEPDEV/nwprod/lib/w3nco/v2.0.6/libw3nco_v2.0.6_4.a(gbytesc.o)
 .bss           0x0000000000c56b00        0x0 /scratch3/NCEPDEV/nwprod/lib/w3nco/v2.0.6/libw3nco_v2.0.6_4.a(getbit.o)
 .bss           0x0000000000c56b00      0x320 /scratch3/NCEPDEV/nwprod/lib/w3nco/v2.0.6/libw3nco_v2.0.6_4.a(getgb1r.o)
 *fill*         0x0000000000c56e20       0x20 
 .bss           0x0000000000c56e40      0x780 /scratch3/NCEPDEV/nwprod/lib/w3nco/v2.0.6/libw3nco_v2.0.6_4.a(getgb1s.o)
 .bss           0x0000000000c575c0        0x0 /scratch3/NCEPDEV/nwprod/lib/w3nco/v2.0.6/libw3nco_v2.0.6_4.a(pdsens.o)
 .bss           0x0000000000c575c0        0x0 /scratch3/NCEPDEV/nwprod/lib/w3nco/v2.0.6/libw3nco_v2.0.6_4.a(pdseup.o)
 .bss           0x0000000000c575c0        0x0 /scratch3/NCEPDEV/nwprod/lib/w3nco/v2.0.6/libw3nco_v2.0.6_4.a(w3fi01.o)
 .bss           0x0000000000c575c0        0x4 /scratch3/NCEPDEV/nwprod/lib/w3nco/v2.0.6/libw3nco_v2.0.6_4.a(w3fi58.o)
 .bss           0x0000000000c575c4        0x4 /scratch3/NCEPDEV/nwprod/lib/w3nco/v2.0.6/libw3nco_v2.0.6_4.a(w3fi59.o)
 *fill*         0x0000000000c575c8       0x18 
 .bss           0x0000000000c575e0    0xf4320 /scratch3/NCEPDEV/nwprod/lib/w3nco/v2.0.6/libw3nco_v2.0.6_4.a(w3fi63.o)
 .bss           0x0000000000d4b900        0x0 /scratch3/NCEPDEV/nwprod/lib/w3nco/v2.0.6/libw3nco_v2.0.6_4.a(w3fi71.o)
 .bss           0x0000000000d4b900      0x320 /scratch3/NCEPDEV/nwprod/lib/w3nco/v2.0.6/libw3nco_v2.0.6_4.a(w3fi83.o)
 .bss           0x0000000000d4bc20   0x1d2ca0 /apps/netcdf/3.6.3-intel/lib/libnetcdf.a(netcdf.o)
 .bss           0x0000000000f1e8c0        0x0 /apps/netcdf/3.6.3-intel/lib/libnetcdf.a(fort-attio.o)
 .bss           0x0000000000f1e8c0        0x0 /apps/netcdf/3.6.3-intel/lib/libnetcdf.a(fort-control.o)
 .bss           0x0000000000f1e8c0        0x0 /apps/netcdf/3.6.3-intel/lib/libnetcdf.a(fort-dim.o)
 .bss           0x0000000000f1e8c0        0x0 /apps/netcdf/3.6.3-intel/lib/libnetcdf.a(fort-genatt.o)
 .bss           0x0000000000f1e8c0        0x0 /apps/netcdf/3.6.3-intel/lib/libnetcdf.a(fort-geninq.o)
 .bss           0x0000000000f1e8c0        0x0 /apps/netcdf/3.6.3-intel/lib/libnetcdf.a(fort-genvar.o)
 .bss           0x0000000000f1e8c0        0x0 /apps/netcdf/3.6.3-intel/lib/libnetcdf.a(fort-lib.o)
 .bss           0x0000000000f1e8c0        0x0 /apps/netcdf/3.6.3-intel/lib/libnetcdf.a(fort-misc.o)
 .bss           0x0000000000f1e8c0        0x0 /apps/netcdf/3.6.3-intel/lib/libnetcdf.a(fort-var1io.o)
 .bss           0x0000000000f1e8c0        0x0 /apps/netcdf/3.6.3-intel/lib/libnetcdf.a(fort-varaio.o)
 .bss           0x0000000000f1e8c0        0x0 /apps/netcdf/3.6.3-intel/lib/libnetcdf.a(fort-varmio.o)
 .bss           0x0000000000f1e8c0        0x0 /apps/netcdf/3.6.3-intel/lib/libnetcdf.a(fort-varsio.o)
 .bss           0x0000000000f1e8c0        0x0 /apps/netcdf/3.6.3-intel/lib/libnetcdf.a(attr.o)
 .bss           0x0000000000f1e8c0        0x0 /apps/netcdf/3.6.3-intel/lib/libnetcdf.a(ncx.o)
 .bss           0x0000000000f1e8c0     0x2000 /apps/netcdf/3.6.3-intel/lib/libnetcdf.a(putget.o)
 .bss           0x0000000000f208c0        0x0 /apps/netcdf/3.6.3-intel/lib/libnetcdf.a(dim.o)
 .bss           0x0000000000f208c0        0x0 /apps/netcdf/3.6.3-intel/lib/libnetcdf.a(error.o)
 .bss           0x0000000000f208c0        0x0 /apps/netcdf/3.6.3-intel/lib/libnetcdf.a(libvers.o)
 .bss           0x0000000000f208c0        0x8 /apps/netcdf/3.6.3-intel/lib/libnetcdf.a(nc.o)
 .bss           0x0000000000f208c8        0x0 /apps/netcdf/3.6.3-intel/lib/libnetcdf.a(string.o)
 .bss           0x0000000000f208c8        0x0 /apps/netcdf/3.6.3-intel/lib/libnetcdf.a(v1hpg.o)
 .bss           0x0000000000f208c8        0x0 /apps/netcdf/3.6.3-intel/lib/libnetcdf.a(var.o)
 .bss           0x0000000000f208c8        0x0 /apps/netcdf/3.6.3-intel/lib/libnetcdf.a(utf8proc.o)
 .bss           0x0000000000f208c8        0x0 /apps/netcdf/3.6.3-intel/lib/libnetcdf.a(posixio.o)
 .bss           0x0000000000f208c8        0x0 /apps/intel/composer_xe_2013_sp1.2.144/compiler/lib/intel64/libifcoremt.a(for_close.o)
 .bss           0x0000000000f208c8        0x0 /apps/intel/composer_xe_2013_sp1.2.144/compiler/lib/intel64/libifcoremt.a(for_close_proc.o)
 .bss           0x0000000000f208c8        0x0 /apps/intel/composer_xe_2013_sp1.2.144/compiler/lib/intel64/libifcoremt.a(for_contig_array.o)
 .bss           0x0000000000f208c8        0x0 /apps/intel/composer_xe_2013_sp1.2.144/compiler/lib/intel64/libifcoremt.a(for_desc_item.o)
 *fill*         0x0000000000f208c8       0x18 
 .bss           0x0000000000f208e0      0x260 /apps/intel/composer_xe_2013_sp1.2.144/compiler/lib/intel64/libifcoremt.a(for_diags_intel.o)
                0x0000000000f20b00                for__user_iomsg_buf
                0x0000000000f20b08                for__user_iomsg_len
 .bss           0x0000000000f20b40        0x4 /apps/intel/composer_xe_2013_sp1.2.144/compiler/lib/intel64/libifcoremt.a(for_exit_handler.o)
                0x0000000000f20b40                for__l_exit_termination
 *fill*         0x0000000000f20b44        0x4 
 .bss           0x0000000000f20b48       0x40 /apps/intel/composer_xe_2013_sp1.2.144/compiler/lib/intel64/libifcoremt.a(for_init.o)
                0x0000000000f20b50                for__l_excpt_info
                0x0000000000f20b5c                for__l_fpe_mask
                0x0000000000f20b60                for__l_undcnt
                0x0000000000f20b64                for__l_ovfcnt
                0x0000000000f20b68                for__l_div0cnt
                0x0000000000f20b6c                for__l_invcnt
                0x0000000000f20b70                for__l_inecnt
                0x0000000000f20b74                for__l_fmtrecl
                0x0000000000f20b78                for__l_ufmtrecl
                0x0000000000f20b7c                for__l_blocksize
                0x0000000000f20b80                for__l_buffercount
 .bss           0x0000000000f20b88        0x0 /apps/intel/composer_xe_2013_sp1.2.144/compiler/lib/intel64/libifcoremt.a(for_inquire.o)
 .bss           0x0000000000f20b88        0x0 /apps/intel/composer_xe_2013_sp1.2.144/compiler/lib/intel64/libifcoremt.a(for_io_util.o)
 *fill*         0x0000000000f20b88       0x18 
 .bss           0x0000000000f20ba0    0x19b00 /apps/intel/composer_xe_2013_sp1.2.144/compiler/lib/intel64/libifcoremt.a(for_lub_mgt.o)
                0x0000000000f20bc0                for__lub_table
 .bss           0x0000000000f3a6a0    0x15600 /apps/intel/composer_xe_2013_sp1.2.144/compiler/lib/intel64/libifcoremt.a(for_need_lf.o)
                0x0000000000f3a6a0                for__file_info_hash_table
 .bss           0x0000000000f4fca0      0x440 /apps/intel/composer_xe_2013_sp1.2.144/compiler/lib/intel64/libifcoremt.a(for_open.o)
                0x0000000000f500c0                for__l_exit_hand_decl
 .bss           0x0000000000f500e0     0x15e0 /apps/intel/composer_xe_2013_sp1.2.144/compiler/lib/intel64/libifcoremt.a(for_preconnected_units_init.o)
 .bss           0x0000000000f516c0        0x0 /apps/intel/composer_xe_2013_sp1.2.144/compiler/lib/intel64/libifcoremt.a(for_put.o)
 .bss           0x0000000000f516c0       0x20 /apps/intel/composer_xe_2013_sp1.2.144/compiler/lib/intel64/libifcoremt.a(for_reentrancy.o)
                0x0000000000f516dc                for__reentrancy_initialized
 .bss           0x0000000000f516e0        0x0 /apps/intel/composer_xe_2013_sp1.2.144/compiler/lib/intel64/libifcoremt.a(for_rint_fmt.o)
 .bss           0x0000000000f516e0       0x18 /apps/intel/composer_xe_2013_sp1.2.144/compiler/lib/intel64/libifcoremt.a(for_rseq_nml.o)
 .bss           0x0000000000f516f8        0x8 /apps/intel/composer_xe_2013_sp1.2.144/compiler/lib/intel64/libifcoremt.a(for_stop.o)
 .bss           0x0000000000f51700       0x18 /apps/intel/composer_xe_2013_sp1.2.144/compiler/lib/intel64/libifcoremt.a(for_vm.o)
                0x0000000000f51700                fp
 .bss           0x0000000000f51718        0x0 /apps/intel/composer_xe_2013_sp1.2.144/compiler/lib/intel64/libifcoremt.a(for_wint_fmt.o)
 .bss           0x0000000000f51718        0x0 /apps/intel/composer_xe_2013_sp1.2.144/compiler/lib/intel64/libifcoremt.a(for_wseq.o)
 .bss           0x0000000000f51718        0x0 /apps/intel/composer_xe_2013_sp1.2.144/compiler/lib/intel64/libifcoremt.a(for_wseq_fmt.o)
 .bss           0x0000000000f51718        0x0 /apps/intel/composer_xe_2013_sp1.2.144/compiler/lib/intel64/libifcoremt.a(for_wseq_lis.o)
 .bss           0x0000000000f51718        0x0 /apps/intel/composer_xe_2013_sp1.2.144/compiler/lib/intel64/libifcoremt.a(for_wseq_nml.o)
 .bss           0x0000000000f51718        0x0 /apps/intel/composer_xe_2013_sp1.2.144/compiler/lib/intel64/libifcoremt.a(for_90_adjust.o)
 .bss           0x0000000000f51718        0x0 /apps/intel/composer_xe_2013_sp1.2.144/compiler/lib/intel64/libifcoremt.a(for_90_trim.o)
 .bss           0x0000000000f51718        0x0 /apps/intel/composer_xe_2013_sp1.2.144/compiler/lib/intel64/libifcoremt.a(for_f90str.o)
 .bss           0x0000000000f51718        0x4 /apps/intel/composer_xe_2013_sp1.2.144/compiler/lib/intel64/libifcoremt.a(tbk_traceback.o)
 *fill*         0x0000000000f5171c        0x4 
 .bss           0x0000000000f51720       0xd8 /apps/intel/composer_xe_2013_sp1.2.144/compiler/lib/intel64/libifcoremt.a(for_aio.o)
                0x0000000000f517c8                for__aio_global_mutex
 .bss           0x0000000000f517f8        0x0 /apps/intel/composer_xe_2013_sp1.2.144/compiler/lib/intel64/libifcoremt.a(for_open_proc.o)
 .bss           0x0000000000f517f8        0x0 /apps/intel/composer_xe_2013_sp1.2.144/compiler/lib/intel64/libifcoremt.a(for_aio_wrap.o)
 .bss           0x0000000000f517f8        0x0 /apps/intel/composer_xe_2013_sp1.2.144/compiler/lib/intel64/libifcoremt.a(cvt_vax_f.o)
 .bss           0x0000000000f517f8        0x0 /apps/intel/composer_xe_2013_sp1.2.144/compiler/lib/intel64/libifcoremt.a(cvt_vax_d.o)
 .bss           0x0000000000f517f8        0x0 /apps/intel/composer_xe_2013_sp1.2.144/compiler/lib/intel64/libifcoremt.a(cvt_vax_g.o)
 .bss           0x0000000000f517f8        0x0 /apps/intel/composer_xe_2013_sp1.2.144/compiler/lib/intel64/libifcoremt.a(cvt_cray.o)
 .bss           0x0000000000f517f8        0x0 /apps/intel/composer_xe_2013_sp1.2.144/compiler/lib/intel64/libifcoremt.a(cvt_ibm_short.o)
 .bss           0x0000000000f517f8        0x0 /apps/intel/composer_xe_2013_sp1.2.144/compiler/lib/intel64/libifcoremt.a(cvt_ibm_long.o)
 .bss           0x0000000000f517f8        0x0 /apps/intel/composer_xe_2013_sp1.2.144/compiler/lib/intel64/libifcoremt.a(cvt_ieee_double.o)
 .bss           0x0000000000f517f8        0x0 /apps/intel/composer_xe_2013_sp1.2.144/compiler/lib/intel64/libifcoremt.a(cvt_ieee_single.o)
 .bss           0x0000000000f517f8        0x0 /apps/intel/composer_xe_2013_sp1.2.144/compiler/lib/intel64/libifcoremt.a(for_common_inquire.o)
 .bss           0x0000000000f517f8        0x0 /apps/intel/composer_xe_2013_sp1.2.144/compiler/lib/intel64/libifcoremt.a(for_default_io_sizes_env_init.o)
 .bss           0x0000000000f517f8        0x0 /apps/intel/composer_xe_2013_sp1.2.144/compiler/lib/intel64/libifcoremt.a(for_exit.o)
 .bss           0x0000000000f517f8        0x0 /apps/intel/composer_xe_2013_sp1.2.144/compiler/lib/intel64/libifcoremt.a(for_fmt_comp.o)
 .bss           0x0000000000f517f8        0x0 /apps/intel/composer_xe_2013_sp1.2.144/compiler/lib/intel64/libifcoremt.a(for_fmt_val.o)
 .bss           0x0000000000f517f8        0x0 /apps/intel/composer_xe_2013_sp1.2.144/compiler/lib/intel64/libifcoremt.a(for_get.o)
 .bss           0x0000000000f517f8        0x0 /apps/intel/composer_xe_2013_sp1.2.144/compiler/lib/intel64/libifcoremt.a(for_intrp_fmt.o)
 .bss           0x0000000000f517f8        0x0 /apps/intel/composer_xe_2013_sp1.2.144/compiler/lib/intel64/libifcoremt.a(for_ldir_wfs.o)
 .bss           0x0000000000f517f8        0x0 /apps/intel/composer_xe_2013_sp1.2.144/compiler/lib/intel64/libifcoremt.a(for_rint_lis.o)
 .bss           0x0000000000f517f8        0x0 /apps/intel/composer_xe_2013_sp1.2.144/compiler/lib/intel64/libifcoremt.a(for_rseq_lis.o)
 .bss           0x0000000000f517f8        0x0 /apps/intel/composer_xe_2013_sp1.2.144/compiler/lib/intel64/libifcoremt.a(cvt__globals.o)
 .bss           0x0000000000f517f8        0x0 /apps/intel/composer_xe_2013_sp1.2.144/compiler/lib/intel64/libifcoremt.a(cvt_int_to_text.o)
 .bss           0x0000000000f517f8        0x0 /apps/intel/composer_xe_2013_sp1.2.144/compiler/lib/intel64/libifcoremt.a(cvt_data_to_text.o)
 .bss           0x0000000000f517f8        0x0 /apps/intel/composer_xe_2013_sp1.2.144/compiler/lib/intel64/libifcoremt.a(cvt_log_to_text.o)
 .bss           0x0000000000f517f8        0x0 /apps/intel/composer_xe_2013_sp1.2.144/compiler/lib/intel64/libifcoremt.a(cvt_text_to_int.o)
 .bss           0x0000000000f517f8        0x0 /apps/intel/composer_xe_2013_sp1.2.144/compiler/lib/intel64/libifcoremt.a(cvt_text_to_data.o)
 .bss           0x0000000000f517f8        0x0 /apps/intel/composer_xe_2013_sp1.2.144/compiler/lib/intel64/libifcoremt.a(cvt_text_to_log.o)
 .bss           0x0000000000f517f8        0x0 /apps/intel/composer_xe_2013_sp1.2.144/compiler/lib/intel64/libifcoremt.a(cvt_cvtas_t.o)
 .bss           0x0000000000f517f8        0x0 /apps/intel/composer_xe_2013_sp1.2.144/compiler/lib/intel64/libifcoremt.a(cvt_cvtas_s.o)
 .bss           0x0000000000f517f8        0x0 /apps/intel/composer_xe_2013_sp1.2.144/compiler/lib/intel64/libifcoremt.a(cvt_cvtas_x.o)
 .bss           0x0000000000f517f8        0x0 /apps/intel/composer_xe_2013_sp1.2.144/compiler/lib/intel64/libifcoremt.a(cvtas_a_to_s.o)
 .bss           0x0000000000f517f8        0x0 /apps/intel/composer_xe_2013_sp1.2.144/compiler/lib/intel64/libifcoremt.a(cvtas_a_to_t.o)
 .bss           0x0000000000f517f8        0x0 /apps/intel/composer_xe_2013_sp1.2.144/compiler/lib/intel64/libifcoremt.a(cvtas_s_to_a.o)
 .bss           0x0000000000f517f8        0x0 /apps/intel/composer_xe_2013_sp1.2.144/compiler/lib/intel64/libifcoremt.a(cvtas_t_to_a.o)
 .bss           0x0000000000f517f8        0x0 /apps/intel/composer_xe_2013_sp1.2.144/compiler/lib/intel64/libifcoremt.a(cvtas_nan_s.o)
 .bss           0x0000000000f517f8        0x0 /apps/intel/composer_xe_2013_sp1.2.144/compiler/lib/intel64/libifcoremt.a(cvtas_nan_t.o)
 .bss           0x0000000000f517f8        0x0 /apps/intel/composer_xe_2013_sp1.2.144/compiler/lib/intel64/libifcoremt.a(cvtas_a_to_x.o)
 .bss           0x0000000000f517f8        0x0 /apps/intel/composer_xe_2013_sp1.2.144/compiler/lib/intel64/libifcoremt.a(cvtas_x_to_a.o)
 .bss           0x0000000000f517f8        0x0 /apps/intel/composer_xe_2013_sp1.2.144/compiler/lib/intel64/libifcoremt.a(cvtas_nan_x.o)
 .bss           0x0000000000f517f8        0x0 /apps/intel/composer_xe_2013_sp1.2.144/compiler/lib/intel64/libifcoremt.a(cvtas_globals.o)
 .bss           0x0000000000f517f8        0x0 /apps/intel/composer_xe_2013_sp1.2.144/compiler/lib/intel64/libifcoremt.a(cvtas_pow_ten_53.o)
 .bss           0x0000000000f517f8        0x0 /apps/intel/composer_xe_2013_sp1.2.144/compiler/lib/intel64/libifcoremt.a(cvtas_pow_ten_64.o)
 .bss           0x0000000000f517f8        0x0 /apps/intel/composer_xe_2013_sp1.2.144/compiler/lib/intel64/libifcoremt.a(cvtas_pow_ten_128.o)
 .bss           0x0000000000f517f8        0x0 /apps/intel/composer_xe_2013_sp1.2.144/compiler/lib/intel64/libimf.a(asinf_stub.o)
 .bss           0x0000000000f517f8        0x0 /apps/intel/composer_xe_2013_sp1.2.144/compiler/lib/intel64/libimf.a(asin.o)
 .bss           0x0000000000f517f8        0x0 /apps/intel/composer_xe_2013_sp1.2.144/compiler/lib/intel64/libimf.a(fetestexcept.o)
 .bss           0x0000000000f517f8        0x0 /apps/intel/composer_xe_2013_sp1.2.144/compiler/lib/intel64/libimf.a(f__powi4i4.o)
 .bss           0x0000000000f517f8        0x0 /apps/intel/composer_xe_2013_sp1.2.144/compiler/lib/intel64/libimf.a(f__powr4i4.o)
 .bss           0x0000000000f517f8        0x8 /apps/intel/composer_xe_2013_sp1.2.144/compiler/lib/intel64/libimf.a(libm_error.o)
 .bss           0x0000000000f51800        0x0 /apps/intel/composer_xe_2013_sp1.2.144/compiler/lib/intel64/libimf.a(log10f_stub.o)
 .bss           0x0000000000f51800        0x0 /apps/intel/composer_xe_2013_sp1.2.144/compiler/lib/intel64/libimf.a(log10_stub.o)
 .bss           0x0000000000f51800        0x0 /apps/intel/composer_xe_2013_sp1.2.144/compiler/lib/intel64/libimf.a(logf_stub.o)
 .bss           0x0000000000f51800        0x0 /apps/intel/composer_xe_2013_sp1.2.144/compiler/lib/intel64/libimf.a(matherrf.o)
 .bss           0x0000000000f51800        0x0 /apps/intel/composer_xe_2013_sp1.2.144/compiler/lib/intel64/libimf.a(matherrl.o)
 .bss           0x0000000000f51800        0x0 /apps/intel/composer_xe_2013_sp1.2.144/compiler/lib/intel64/libimf.a(matherr.o)
 .bss           0x0000000000f51800        0x0 /apps/intel/composer_xe_2013_sp1.2.144/compiler/lib/intel64/libimf.a(asinf_ct.o)
 .bss           0x0000000000f51800        0x0 /apps/intel/composer_xe_2013_sp1.2.144/compiler/lib/intel64/libimf.a(asinf_gen.o)
 .bss           0x0000000000f51800        0x0 /apps/intel/composer_xe_2013_sp1.2.144/compiler/lib/intel64/libimf.a(log10_ct.o)
 .bss           0x0000000000f51800        0x0 /apps/intel/composer_xe_2013_sp1.2.144/compiler/lib/intel64/libimf.a(log10f_ct.o)
 .bss           0x0000000000f51800        0x0 /apps/intel/composer_xe_2013_sp1.2.144/compiler/lib/intel64/libimf.a(log10f_gen.o)
 .bss           0x0000000000f51800        0x0 /apps/intel/composer_xe_2013_sp1.2.144/compiler/lib/intel64/libimf.a(log10_gen.o)
 .bss           0x0000000000f51800        0x0 /apps/intel/composer_xe_2013_sp1.2.144/compiler/lib/intel64/libimf.a(logf_ct.o)
 .bss           0x0000000000f51800        0x0 /apps/intel/composer_xe_2013_sp1.2.144/compiler/lib/intel64/libimf.a(logf_gen.o)
 .bss           0x0000000000f51800        0x0 /apps/intel/composer_xe_2013_sp1.2.144/compiler/lib/intel64/libimf.a(logf_table.o)
 .bss           0x0000000000f51800        0x0 /apps/intel/composer_xe_2013_sp1.2.144/compiler/lib/intel64/libimf.a(rcp_table.o)
 .bss           0x0000000000f51800        0x0 /apps/intel/composer_xe_2013_sp1.2.144/compiler/lib/intel64/libsvml.a(svml_dcos2_la_iface.o)
 .bss           0x0000000000f51800        0x0 /apps/intel/composer_xe_2013_sp1.2.144/compiler/lib/intel64/libsvml.a(svml_dcos2_y8la.o)
 .bss           0x0000000000f51800        0x0 /apps/intel/composer_xe_2013_sp1.2.144/compiler/lib/intel64/libsvml.a(svml_sroundf4_la_iface.o)
 .bss           0x0000000000f51800        0x0 /apps/intel/composer_xe_2013_sp1.2.144/compiler/lib/intel64/libsvml.a(svml_sroundf4_y8la.o)
 .bss           0x0000000000f51800        0x4 /apps/intel/composer_xe_2013_sp1.2.144/compiler/lib/intel64/libsvml.a(svml_d_feature_flag_.o)
                0x0000000000f51800                __svml_feature_flag
 .bss           0x0000000000f51804        0x0 /apps/intel/composer_xe_2013_sp1.2.144/compiler/lib/intel64/libsvml.a(svml_dcos2_e7la.o)
 .bss           0x0000000000f51804        0x0 /apps/intel/composer_xe_2013_sp1.2.144/compiler/lib/intel64/libsvml.a(svml_dcos2_exla.o)
 .bss           0x0000000000f51804        0x0 /apps/intel/composer_xe_2013_sp1.2.144/compiler/lib/intel64/libsvml.a(svml_dcos2_h9la.o)
 .bss           0x0000000000f51804        0x0 /apps/intel/composer_xe_2013_sp1.2.144/compiler/lib/intel64/libsvml.a(svml_s_round_data_exla.o)
 .bss           0x0000000000f51804        0x0 /apps/intel/composer_xe_2013_sp1.2.144/compiler/lib/intel64/libsvml.a(svml_sroundf4_e7la.o)
 .bss           0x0000000000f51804        0x0 /apps/intel/composer_xe_2013_sp1.2.144/compiler/lib/intel64/libsvml.a(svml_sroundf4_exla.o)
 .bss           0x0000000000f51804        0x0 /apps/intel/composer_xe_2013_sp1.2.144/compiler/lib/intel64/libsvml.a(svml_sroundf4_h9la.o)
 .bss           0x0000000000f51804        0x0 /apps/intel/composer_xe_2013_sp1.2.144/compiler/lib/intel64/libirc.a(q2ints.o)
 .bss           0x0000000000f51804        0x0 /apps/intel/composer_xe_2013_sp1.2.144/compiler/lib/intel64/libirc.a(tbk_display.o)
 *fill*         0x0000000000f51804       0x1c 
 .bss           0x0000000000f51820      0x180 /apps/intel/composer_xe_2013_sp1.2.144/compiler/lib/intel64/libirc.a(tbk_backtrace.o)
                0x0000000000f518c0                tbk__jmp_env
 .bss           0x0000000000f519a0       0x10 /apps/intel/composer_xe_2013_sp1.2.144/compiler/lib/intel64/libirc.a(cpu_feature_disp.o)
                0x0000000000f519a0                __intel_cpu_feature_indicator
                0x0000000000f519a8                __intel_cpu_feature_indicator_x
 .bss           0x0000000000f519b0        0x0 /apps/intel/composer_xe_2013_sp1.2.144/compiler/lib/intel64/libirc.a(ia32_memcmp.o)
 .bss           0x0000000000f519b0        0x0 /apps/intel/composer_xe_2013_sp1.2.144/compiler/lib/intel64/libirc.a(fastmemcpy.o)
 .bss           0x0000000000f519b0        0x0 /apps/intel/composer_xe_2013_sp1.2.144/compiler/lib/intel64/libirc.a(fastmemmove.o)
 .bss           0x0000000000f519b0        0x0 /apps/intel/composer_xe_2013_sp1.2.144/compiler/lib/intel64/libirc.a(fastmemset.o)
 .bss           0x0000000000f519b0        0x0 /apps/intel/composer_xe_2013_sp1.2.144/compiler/lib/intel64/libirc.a(new_proc_init.o)
 .bss           0x0000000000f519b0        0x0 /apps/intel/composer_xe_2013_sp1.2.144/compiler/lib/intel64/libirc.a(sse2_strcspn.o)
 .bss           0x0000000000f519b0        0x0 /apps/intel/composer_xe_2013_sp1.2.144/compiler/lib/intel64/libirc.a(sse2_strcpy.o)
 .bss           0x0000000000f519b0        0x0 /apps/intel/composer_xe_2013_sp1.2.144/compiler/lib/intel64/libirc.a(sse2_strncpy.o)
 .bss           0x0000000000f519b0        0x0 /apps/intel/composer_xe_2013_sp1.2.144/compiler/lib/intel64/libirc.a(sse2_strlen.o)
 .bss           0x0000000000f519b0        0x0 /apps/intel/composer_xe_2013_sp1.2.144/compiler/lib/intel64/libirc.a(sse2_strchr.o)
 .bss           0x0000000000f519b0        0x0 /apps/intel/composer_xe_2013_sp1.2.144/compiler/lib/intel64/libirc.a(sse2_strncmp.o)
 .bss           0x0000000000f519b0        0x0 /apps/intel/composer_xe_2013_sp1.2.144/compiler/lib/intel64/libirc.a(sse2_strcat.o)
 .bss           0x0000000000f519b0        0x0 /apps/intel/composer_xe_2013_sp1.2.144/compiler/lib/intel64/libirc.a(sse2_strncat.o)
 .bss           0x0000000000f519b0        0x0 /apps/intel/composer_xe_2013_sp1.2.144/compiler/lib/intel64/libirc.a(fast_memcpy_pp.o)
 .bss           0x0000000000f519b0        0x0 /apps/intel/composer_xe_2013_sp1.2.144/compiler/lib/intel64/libirc.a(fast_memset_pp.o)
 .bss           0x0000000000f519b0        0x0 /apps/intel/composer_xe_2013_sp1.2.144/compiler/lib/intel64/libirc.a(intel_ssse3_memcpy.o)
 .bss           0x0000000000f519b0        0x0 /apps/intel/composer_xe_2013_sp1.2.144/compiler/lib/intel64/libirc.a(intel_ssse3_rep_memcpy.o)
 .bss           0x0000000000f519b0        0x0 /apps/intel/composer_xe_2013_sp1.2.144/compiler/lib/intel64/libirc.a(intel_ssse3_memmove.o)
 .bss           0x0000000000f519b0        0x0 /apps/intel/composer_xe_2013_sp1.2.144/compiler/lib/intel64/libirc.a(intel_ssse3_rep_memmove.o)
 *fill*         0x0000000000f519b0       0x10 
 .bss           0x0000000000f519c0      0x420 /apps/intel/composer_xe_2013_sp1.2.144/compiler/lib/intel64/libirc.a(irc_msg_support.o)
 .bss           0x0000000000f51de0       0x60 /apps/intel/composer_xe_2013_sp1.2.144/compiler/lib/intel64/libirc.a(fast_mem_ops.o)
                0x0000000000f51e24                __libirc_mem_ops_method
                0x0000000000f51e28                __libirc_largest_cachelinesize
 .bss           0x0000000000f51e40        0x0 /apps/intel/composer_xe_2013_sp1.2.144/compiler/lib/intel64/libirc.a(proc_init_utils.o)
 .bss           0x0000000000f51e40        0x0 /usr/lib64/libc_nonshared.a(elf-init.oS)
 .bss           0x0000000000f51e40        0x0 /usr/lib/gcc/x86_64-redhat-linux/4.8.5/crtend.o
 .bss           0x0000000000f51e40        0x0 /usr/lib/gcc/x86_64-redhat-linux/4.8.5/../../../../lib64/crtn.o
 *(COMMON)
 COMMON         0x0000000000f51e40      0x134 constants.o
                0x0000000000f51e40                constants_mp_factor1_
                0x0000000000f51e48                constants_mp_ozcon_
                0x0000000000f51e50                constants_mp_fv_
                0x0000000000f51e58                constants_mp_huge_i_kind_
                0x0000000000f51e60                constants_mp_el2orc_
                0x0000000000f51e68                constants_mp_cg_term_
                0x0000000000f51e70                constants_mp_rv_
                0x0000000000f51e78                constants_mp_rearth_
                0x0000000000f51e80                constants_mp_rad2deg_
                0x0000000000f51e88                constants_mp_tpwcon_
                0x0000000000f51e90                constants_mp_pi_
                0x0000000000f51e98                constants_mp_grav_
                0x0000000000f51ea0                constants_mp_rd_over_g_
                0x0000000000f51ea8                constants_mp_gamma_
                0x0000000000f51eb0                constants_mp_rd_
                0x0000000000f51eb8                constants_mp_omeps_
                0x0000000000f51ec0                constants_mp_rd_over_cp_mass_
                0x0000000000f51ec8                constants_mp_xb_
                0x0000000000f51ed0                constants_mp_tiny_single_
                0x0000000000f51ed8                constants_mp_cpr_
                0x0000000000f51ee0                constants_mp_deg2rad_
                0x0000000000f51ee8                constants_mp_dldt_
                0x0000000000f51ef0                constants_mp_eps_
                0x0000000000f51ef8                constants_mp_cp_mass_
                0x0000000000f51f00                constants_mp_tiny_r_kind_
                0x0000000000f51f08                constants_mp_rd_over_cp_
                0x0000000000f51f10                constants_mp_xai_
                0x0000000000f51f18                constants_mp_g_over_rd_
                0x0000000000f51f20                constants_mp_epsm1_
                0x0000000000f51f28                constants_mp_huge_r_kind_
                0x0000000000f51f30                constants_mp_cliq_
                0x0000000000f51f38                constants_mp_huge_single_
                0x0000000000f51f40                constants_mp_rozcon_
                0x0000000000f51f48                constants_mp_xa_
                0x0000000000f51f50                constants_mp_eccentricity_linear_
                0x0000000000f51f58                constants_mp_factor2_
                0x0000000000f51f60                constants_mp_cv_
                0x0000000000f51f68                constants_mp_eccentricity_
                0x0000000000f51f70                constants_mp_xbi_
 *fill*         0x0000000000f51f74        0x4 
 COMMON         0x0000000000f51f78        0x4 gfs_nems_interface.o
                0x0000000000f51f78                gfs_nems_interface_mp_nemsio_iret_
 *fill*         0x0000000000f51f7c        0x4 
 COMMON         0x0000000000f51f80      0x104 /tmp/ifort3qcMiK.o
                0x0000000000f51f80                mpipriv1_
                0x0000000000f51fc0                mpiprivc_
                0x0000000000f52000                mpipriv2_
                0x0000000000f52040                mpifcmb9_
                0x0000000000f52080                mpifcmb5_
 *fill*         0x0000000000f52084       0x1c 
 COMMON         0x0000000000f520a0      0x17c /scratch3/NCEPDEV/nwprod/lib/nemsio/v2.2.1/libnemsio_v2.2.1.a(nemsio_read.o)
                0x0000000000f520a0                nemsio_read_mp_mymbuf_
                0x0000000000f520c0                nemsio_read_mp_mygfname_
                0x0000000000f521c0                nemsio_read_mp_mymnum_
                0x0000000000f521c8                nemsio_read_mp_mydimx_
                0x0000000000f521d0                nemsio_read_mp_mytlmeta_
                0x0000000000f521d8                nemsio_read_mp_do_byteswap_
                0x0000000000f521e0                nemsio_read_mp_mydimz_
                0x0000000000f521e8                nemsio_read_mp_myfieldsize_
                0x0000000000f521f0                nemsio_read_mp_myflunit_
                0x0000000000f521f8                nemsio_read_mp_mygdatatype_
                0x0000000000f52200                nemsio_read_mp_mynlen_
                0x0000000000f52208                nemsio_read_mp_mynnum_
                0x0000000000f52210                nemsio_read_mp_mydimy_
                0x0000000000f52218                nemsio_read_mp_mynframe_
 *fill*         0x0000000000f5221c        0x4 
 COMMON         0x0000000000f52220       0x5c /scratch3/NCEPDEV/nwprod/lib/nemsio/v2.2.1/libnemsio_v2.2.1.a(nemsio_write.o)
                0x0000000000f52220                nemsio_write_mp_kens_
                0x0000000000f52228                nemsio_write_mp_myfieldsize_
                0x0000000000f52230                nemsio_write_mp_mydimy_
                0x0000000000f52238                nemsio_write_mp_mydimx_
                0x0000000000f52240                nemsio_write_mp_mytlmeta_
                0x0000000000f52248                nemsio_write_mp_mygdatatype_
                0x0000000000f52250                nemsio_write_mp_myflunit_
                0x0000000000f52258                nemsio_write_mp_nbits_
                0x0000000000f52260                nemsio_write_mp_mydimz_
                0x0000000000f52268                nemsio_write_mp_do_byteswap_
                0x0000000000f52270                nemsio_write_mp_ibs_
                0x0000000000f52278                nemsio_write_mp_mynframe_
 *fill*         0x0000000000f5227c        0x4 
 COMMON         0x0000000000f52280        0x4 /scratch3/NCEPDEV/nwprod/lib/bacio/v2.0.1/libbacio_v2.0.1_4.a(chk_endianc.o)
                0x0000000000f52280                __BLNK__
 *fill*         0x0000000000f52284        0x4 
 COMMON         0x0000000000f52288        0x8 /apps/intel/composer_xe_2013_sp1.2.144/compiler/lib/intel64/libifcoremt.a(for_diags_intel.o)
                0x0000000000f52288                message_catalog
 COMMON         0x0000000000f52290        0xc /apps/intel/composer_xe_2013_sp1.2.144/compiler/lib/intel64/libifcoremt.a(for_init.o)
                0x0000000000f52290                for__a_argv
                0x0000000000f52298                for__l_argc
 *fill*         0x0000000000f5229c        0x4 
 COMMON         0x0000000000f522a0      0x480 /apps/intel/composer_xe_2013_sp1.2.144/compiler/lib/intel64/libifcoremt.a(for_aio.o)
                0x0000000000f522a0                thread_count_mutex
                0x0000000000f522c8                threads_in_flight_mutex
                0x0000000000f522f0                for__pthread_mutex_unlock_ptr
                0x0000000000f522f8                for__pthread_mutex_init_ptr
                0x0000000000f52300                for__pthread_mutex_lock_ptr
                0x0000000000f52320                for__aio_lub_table
                0x0000000000f52720                . = ALIGN ((. != 0x0)?0x8:0x1)

.lbss
 *(.dynlbss)
 *(.lbss .lbss.* .gnu.linkonce.lb.*)
 *(LARGE_COMMON)
                0x0000000000f52720                . = ALIGN (0x8)
                0x0000000000f52720                . = SEGMENT_START ("ldata-segment", .)

.lrodata
 *(.lrodata .lrodata.* .gnu.linkonce.lr.*)

.ldata          0x0000000001352720        0x0
 *(.ldata .ldata.* .gnu.linkonce.l.*)
                0x0000000001352720                . = ALIGN ((. != 0x0)?0x8:0x1)
                0x0000000001352720                . = ALIGN (0x8)
                0x0000000001352720                _end = .
                [!provide]                        PROVIDE (end, .)
                0x0000000001352720                . = DATA_SEGMENT_END (.)

.stab
 *(.stab)

.stabstr
 *(.stabstr)

.stab.excl
 *(.stab.excl)

.stab.exclstr
 *(.stab.exclstr)

.stab.index
 *(.stab.index)

.stab.indexstr
 *(.stab.indexstr)

.comment        0x0000000000000000     0x1186
 *(.comment)
 .comment       0x0000000000000000       0x2d /usr/lib/gcc/x86_64-redhat-linux/4.8.5/../../../../lib64/crt1.o
                                         0x2e (size before relaxing)
 .comment       0x000000000000002d       0x2e /usr/lib/gcc/x86_64-redhat-linux/4.8.5/crtbegin.o
 .comment       0x000000000000002d       0x2a /apps/intel/composer_xe_2013_sp1.2.144/compiler/lib/intel64/for_main.o
 .comment       0x0000000000000057       0x17 kinds.o
 .comment       0x000000000000006e       0x17 constants.o
 .comment       0x0000000000000085       0x17 namelist_def.o
 .comment       0x000000000000009c       0x17 variable_interface.o
 .comment       0x00000000000000b3       0x17 gfs_nems_interface.o
 .comment       0x00000000000000ca       0x17 fv3_interface.o
 .comment       0x00000000000000e1       0x17 calc_increment_interface.o
 .comment       0x00000000000000f8       0x2a /tmp/ifort3qcMiK.o
 .comment       0x0000000000000122       0x40 /scratch3/NCEPDEV/nwprod/lib/nemsio/v2.2.1/libnemsio_v2.2.1.a(nemsio_openclose.o)
 .comment       0x0000000000000162       0x17 /scratch3/NCEPDEV/nwprod/lib/nemsio/v2.2.1/libnemsio_v2.2.1.a(nemsio_read.o)
 .comment       0x0000000000000179       0x17 /scratch3/NCEPDEV/nwprod/lib/nemsio/v2.2.1/libnemsio_v2.2.1.a(nemsio_write.o)
 .comment       0x0000000000000190       0x17 /scratch3/NCEPDEV/nwprod/lib/bacio/v2.0.1/libbacio_v2.0.1_4.a(baciof.o)
 .comment       0x00000000000001a7       0x17 /scratch3/NCEPDEV/nwprod/lib/bacio/v2.0.1/libbacio_v2.0.1_4.a(bafrio.o)
 .comment       0x00000000000001be       0x17 /scratch3/NCEPDEV/nwprod/lib/bacio/v2.0.1/libbacio_v2.0.1_4.a(byteswap.o)
 .comment       0x00000000000001d5       0x17 /scratch3/NCEPDEV/nwprod/lib/bacio/v2.0.1/libbacio_v2.0.1_4.a(chk_endianc.o)
 .comment       0x00000000000001ec       0x17 /scratch3/NCEPDEV/nwprod/lib/bacio/v2.0.1/libbacio_v2.0.1_4.a(bacio.o)
 .comment       0x0000000000000203       0x17 /scratch3/NCEPDEV/nwprod/lib/w3nco/v2.0.6/libw3nco_v2.0.6_4.a(getgbm.o)
 .comment       0x000000000000021a       0x17 /scratch3/NCEPDEV/nwprod/lib/w3nco/v2.0.6/libw3nco_v2.0.6_4.a(getgi.o)
 .comment       0x0000000000000231       0x17 /scratch3/NCEPDEV/nwprod/lib/w3nco/v2.0.6/libw3nco_v2.0.6_4.a(getgir.o)
 .comment       0x0000000000000248       0x17 /scratch3/NCEPDEV/nwprod/lib/w3nco/v2.0.6/libw3nco_v2.0.6_4.a(ixgb.o)
 .comment       0x000000000000025f       0x17 /scratch3/NCEPDEV/nwprod/lib/w3nco/v2.0.6/libw3nco_v2.0.6_4.a(lengds.o)
 .comment       0x0000000000000276       0x17 /scratch3/NCEPDEV/nwprod/lib/w3nco/v2.0.6/libw3nco_v2.0.6_4.a(putgben.o)
 .comment       0x000000000000028d       0x17 /scratch3/NCEPDEV/nwprod/lib/w3nco/v2.0.6/libw3nco_v2.0.6_4.a(r63w72.o)
 .comment       0x00000000000002a4       0x17 /scratch3/NCEPDEV/nwprod/lib/w3nco/v2.0.6/libw3nco_v2.0.6_4.a(sbytec.o)
 .comment       0x00000000000002bb       0x17 /scratch3/NCEPDEV/nwprod/lib/w3nco/v2.0.6/libw3nco_v2.0.6_4.a(sbytesc.o)
 .comment       0x00000000000002d2       0x17 /scratch3/NCEPDEV/nwprod/lib/w3nco/v2.0.6/libw3nco_v2.0.6_4.a(skgb.o)
 .comment       0x00000000000002e9       0x17 /scratch3/NCEPDEV/nwprod/lib/w3nco/v2.0.6/libw3nco_v2.0.6_4.a(w3fi68.o)
 .comment       0x0000000000000300       0x40 /scratch3/NCEPDEV/nwprod/lib/w3nco/v2.0.6/libw3nco_v2.0.6_4.a(w3fi72.o)
 .comment       0x0000000000000340       0x17 /scratch3/NCEPDEV/nwprod/lib/w3nco/v2.0.6/libw3nco_v2.0.6_4.a(w3fi73.o)
 .comment       0x0000000000000357       0x17 /scratch3/NCEPDEV/nwprod/lib/w3nco/v2.0.6/libw3nco_v2.0.6_4.a(w3fi74.o)
 .comment       0x000000000000036e       0x40 /scratch3/NCEPDEV/nwprod/lib/w3nco/v2.0.6/libw3nco_v2.0.6_4.a(w3fi75.o)
 .comment       0x00000000000003ae       0x17 /scratch3/NCEPDEV/nwprod/lib/w3nco/v2.0.6/libw3nco_v2.0.6_4.a(w3fi76.o)
 .comment       0x00000000000003c5       0x17 /scratch3/NCEPDEV/nwprod/lib/w3nco/v2.0.6/libw3nco_v2.0.6_4.a(w3fi82.o)
 .comment       0x00000000000003dc       0x17 /scratch3/NCEPDEV/nwprod/lib/w3nco/v2.0.6/libw3nco_v2.0.6_4.a(mova2i.o)
 .comment       0x00000000000003f3       0x17 /scratch3/NCEPDEV/nwprod/lib/w3nco/v2.0.6/libw3nco_v2.0.6_4.a(gbytec.o)
 .comment       0x000000000000040a       0x17 /scratch3/NCEPDEV/nwprod/lib/w3nco/v2.0.6/libw3nco_v2.0.6_4.a(gbytesc.o)
 .comment       0x0000000000000421       0x40 /scratch3/NCEPDEV/nwprod/lib/w3nco/v2.0.6/libw3nco_v2.0.6_4.a(getbit.o)
 .comment       0x0000000000000461       0x17 /scratch3/NCEPDEV/nwprod/lib/w3nco/v2.0.6/libw3nco_v2.0.6_4.a(getgb1r.o)
 .comment       0x0000000000000478       0x17 /scratch3/NCEPDEV/nwprod/lib/w3nco/v2.0.6/libw3nco_v2.0.6_4.a(getgb1s.o)
 .comment       0x000000000000048f       0x17 /scratch3/NCEPDEV/nwprod/lib/w3nco/v2.0.6/libw3nco_v2.0.6_4.a(pdsens.o)
 .comment       0x00000000000004a6       0x17 /scratch3/NCEPDEV/nwprod/lib/w3nco/v2.0.6/libw3nco_v2.0.6_4.a(pdseup.o)
 .comment       0x00000000000004bd       0x17 /scratch3/NCEPDEV/nwprod/lib/w3nco/v2.0.6/libw3nco_v2.0.6_4.a(w3fi01.o)
 .comment       0x00000000000004d4       0x17 /scratch3/NCEPDEV/nwprod/lib/w3nco/v2.0.6/libw3nco_v2.0.6_4.a(w3fi58.o)
 .comment       0x00000000000004eb       0x40 /scratch3/NCEPDEV/nwprod/lib/w3nco/v2.0.6/libw3nco_v2.0.6_4.a(w3fi59.o)
 .comment       0x000000000000052b       0x17 /scratch3/NCEPDEV/nwprod/lib/w3nco/v2.0.6/libw3nco_v2.0.6_4.a(w3fi63.o)
 .comment       0x0000000000000542       0x17 /scratch3/NCEPDEV/nwprod/lib/w3nco/v2.0.6/libw3nco_v2.0.6_4.a(w3fi71.o)
 .comment       0x0000000000000559       0x17 /scratch3/NCEPDEV/nwprod/lib/w3nco/v2.0.6/libw3nco_v2.0.6_4.a(w3fi83.o)
 .comment       0x0000000000000570       0x2c /apps/netcdf/3.6.3-intel/lib/libnetcdf.a(fort-attio.o)
                                         0x2d (size before relaxing)
 .comment       0x000000000000059c       0x2d /apps/netcdf/3.6.3-intel/lib/libnetcdf.a(fort-control.o)
 .comment       0x000000000000059c       0x2d /apps/netcdf/3.6.3-intel/lib/libnetcdf.a(fort-dim.o)
 .comment       0x000000000000059c       0x2d /apps/netcdf/3.6.3-intel/lib/libnetcdf.a(fort-genatt.o)
 .comment       0x000000000000059c       0x2d /apps/netcdf/3.6.3-intel/lib/libnetcdf.a(fort-geninq.o)
 .comment       0x000000000000059c       0x2d /apps/netcdf/3.6.3-intel/lib/libnetcdf.a(fort-genvar.o)
 .comment       0x000000000000059c       0x2d /apps/netcdf/3.6.3-intel/lib/libnetcdf.a(fort-lib.o)
 .comment       0x000000000000059c       0x2d /apps/netcdf/3.6.3-intel/lib/libnetcdf.a(fort-misc.o)
 .comment       0x000000000000059c       0x2d /apps/netcdf/3.6.3-intel/lib/libnetcdf.a(fort-var1io.o)
 .comment       0x000000000000059c       0x2d /apps/netcdf/3.6.3-intel/lib/libnetcdf.a(fort-varaio.o)
 .comment       0x000000000000059c       0x2d /apps/netcdf/3.6.3-intel/lib/libnetcdf.a(fort-varmio.o)
 .comment       0x000000000000059c       0x2d /apps/netcdf/3.6.3-intel/lib/libnetcdf.a(fort-varsio.o)
 .comment       0x000000000000059c       0x2d /apps/netcdf/3.6.3-intel/lib/libnetcdf.a(attr.o)
 .comment       0x000000000000059c       0x2d /apps/netcdf/3.6.3-intel/lib/libnetcdf.a(ncx.o)
 .comment       0x000000000000059c       0x2d /apps/netcdf/3.6.3-intel/lib/libnetcdf.a(putget.o)
 .comment       0x000000000000059c       0x2d /apps/netcdf/3.6.3-intel/lib/libnetcdf.a(dim.o)
 .comment       0x000000000000059c       0x2d /apps/netcdf/3.6.3-intel/lib/libnetcdf.a(error.o)
 .comment       0x000000000000059c       0x2d /apps/netcdf/3.6.3-intel/lib/libnetcdf.a(libvers.o)
 .comment       0x000000000000059c       0x2d /apps/netcdf/3.6.3-intel/lib/libnetcdf.a(nc.o)
 .comment       0x000000000000059c       0x2d /apps/netcdf/3.6.3-intel/lib/libnetcdf.a(string.o)
 .comment       0x000000000000059c       0x2d /apps/netcdf/3.6.3-intel/lib/libnetcdf.a(v1hpg.o)
 .comment       0x000000000000059c       0x2d /apps/netcdf/3.6.3-intel/lib/libnetcdf.a(var.o)
 .comment       0x000000000000059c       0x2d /apps/netcdf/3.6.3-intel/lib/libnetcdf.a(utf8proc.o)
 .comment       0x000000000000059c       0x2d /apps/netcdf/3.6.3-intel/lib/libnetcdf.a(posixio.o)
 .comment       0x000000000000059c       0x17 /apps/intel/composer_xe_2013_sp1.2.144/compiler/lib/intel64/libifcoremt.a(for_close.o)
 .comment       0x00000000000005b3       0x17 /apps/intel/composer_xe_2013_sp1.2.144/compiler/lib/intel64/libifcoremt.a(for_close_proc.o)
 .comment       0x00000000000005ca       0x17 /apps/intel/composer_xe_2013_sp1.2.144/compiler/lib/intel64/libifcoremt.a(for_contig_array.o)
 .comment       0x00000000000005e1       0x17 /apps/intel/composer_xe_2013_sp1.2.144/compiler/lib/intel64/libifcoremt.a(for_desc_item.o)
 .comment       0x00000000000005f8       0x17 /apps/intel/composer_xe_2013_sp1.2.144/compiler/lib/intel64/libifcoremt.a(for_diags_intel.o)
 .comment       0x000000000000060f       0x17 /apps/intel/composer_xe_2013_sp1.2.144/compiler/lib/intel64/libifcoremt.a(for_exit_handler.o)
 .comment       0x0000000000000626       0x17 /apps/intel/composer_xe_2013_sp1.2.144/compiler/lib/intel64/libifcoremt.a(for_init.o)
 .comment       0x000000000000063d       0x17 /apps/intel/composer_xe_2013_sp1.2.144/compiler/lib/intel64/libifcoremt.a(for_inquire.o)
 .comment       0x0000000000000654       0x17 /apps/intel/composer_xe_2013_sp1.2.144/compiler/lib/intel64/libifcoremt.a(for_io_util.o)
 .comment       0x000000000000066b       0x17 /apps/intel/composer_xe_2013_sp1.2.144/compiler/lib/intel64/libifcoremt.a(for_lub_mgt.o)
 .comment       0x0000000000000682       0x17 /apps/intel/composer_xe_2013_sp1.2.144/compiler/lib/intel64/libifcoremt.a(for_need_lf.o)
 .comment       0x0000000000000699       0x17 /apps/intel/composer_xe_2013_sp1.2.144/compiler/lib/intel64/libifcoremt.a(for_open.o)
 .comment       0x00000000000006b0       0x17 /apps/intel/composer_xe_2013_sp1.2.144/compiler/lib/intel64/libifcoremt.a(for_preconnected_units_init.o)
 .comment       0x00000000000006c7       0x17 /apps/intel/composer_xe_2013_sp1.2.144/compiler/lib/intel64/libifcoremt.a(for_put.o)
 .comment       0x00000000000006de       0x17 /apps/intel/composer_xe_2013_sp1.2.144/compiler/lib/intel64/libifcoremt.a(for_reentrancy.o)
 .comment       0x00000000000006f5       0x17 /apps/intel/composer_xe_2013_sp1.2.144/compiler/lib/intel64/libifcoremt.a(for_rint_fmt.o)
 .comment       0x000000000000070c       0x17 /apps/intel/composer_xe_2013_sp1.2.144/compiler/lib/intel64/libifcoremt.a(for_rseq_nml.o)
 .comment       0x0000000000000723       0x17 /apps/intel/composer_xe_2013_sp1.2.144/compiler/lib/intel64/libifcoremt.a(for_stop.o)
 .comment       0x000000000000073a       0x17 /apps/intel/composer_xe_2013_sp1.2.144/compiler/lib/intel64/libifcoremt.a(for_vm.o)
 .comment       0x0000000000000751       0x17 /apps/intel/composer_xe_2013_sp1.2.144/compiler/lib/intel64/libifcoremt.a(for_wint_fmt.o)
 .comment       0x0000000000000768       0x17 /apps/intel/composer_xe_2013_sp1.2.144/compiler/lib/intel64/libifcoremt.a(for_wseq.o)
 .comment       0x000000000000077f       0x17 /apps/intel/composer_xe_2013_sp1.2.144/compiler/lib/intel64/libifcoremt.a(for_wseq_fmt.o)
 .comment       0x0000000000000796       0x17 /apps/intel/composer_xe_2013_sp1.2.144/compiler/lib/intel64/libifcoremt.a(for_wseq_lis.o)
 .comment       0x00000000000007ad       0x17 /apps/intel/composer_xe_2013_sp1.2.144/compiler/lib/intel64/libifcoremt.a(for_wseq_nml.o)
 .comment       0x00000000000007c4       0x17 /apps/intel/composer_xe_2013_sp1.2.144/compiler/lib/intel64/libifcoremt.a(for_90_adjust.o)
 .comment       0x00000000000007db       0x17 /apps/intel/composer_xe_2013_sp1.2.144/compiler/lib/intel64/libifcoremt.a(for_90_trim.o)
 .comment       0x00000000000007f2       0x17 /apps/intel/composer_xe_2013_sp1.2.144/compiler/lib/intel64/libifcoremt.a(for_f90str.o)
 .comment       0x0000000000000809       0x17 /apps/intel/composer_xe_2013_sp1.2.144/compiler/lib/intel64/libifcoremt.a(tbk_traceback.o)
 .comment       0x0000000000000820       0x17 /apps/intel/composer_xe_2013_sp1.2.144/compiler/lib/intel64/libifcoremt.a(for_aio.o)
 .comment       0x0000000000000837       0x17 /apps/intel/composer_xe_2013_sp1.2.144/compiler/lib/intel64/libifcoremt.a(for_open_proc.o)
 .comment       0x000000000000084e       0x17 /apps/intel/composer_xe_2013_sp1.2.144/compiler/lib/intel64/libifcoremt.a(for_aio_wrap.o)
 .comment       0x0000000000000865       0x17 /apps/intel/composer_xe_2013_sp1.2.144/compiler/lib/intel64/libifcoremt.a(cvt_vax_f.o)
 .comment       0x000000000000087c       0x17 /apps/intel/composer_xe_2013_sp1.2.144/compiler/lib/intel64/libifcoremt.a(cvt_vax_d.o)
 .comment       0x0000000000000893       0x17 /apps/intel/composer_xe_2013_sp1.2.144/compiler/lib/intel64/libifcoremt.a(cvt_vax_g.o)
 .comment       0x00000000000008aa       0x17 /apps/intel/composer_xe_2013_sp1.2.144/compiler/lib/intel64/libifcoremt.a(cvt_cray.o)
 .comment       0x00000000000008c1       0x17 /apps/intel/composer_xe_2013_sp1.2.144/compiler/lib/intel64/libifcoremt.a(cvt_ibm_short.o)
 .comment       0x00000000000008d8       0x17 /apps/intel/composer_xe_2013_sp1.2.144/compiler/lib/intel64/libifcoremt.a(cvt_ibm_long.o)
 .comment       0x00000000000008ef       0x17 /apps/intel/composer_xe_2013_sp1.2.144/compiler/lib/intel64/libifcoremt.a(cvt_ieee_double.o)
 .comment       0x0000000000000906       0x17 /apps/intel/composer_xe_2013_sp1.2.144/compiler/lib/intel64/libifcoremt.a(cvt_ieee_single.o)
 .comment       0x000000000000091d       0x17 /apps/intel/composer_xe_2013_sp1.2.144/compiler/lib/intel64/libifcoremt.a(for_common_inquire.o)
 .comment       0x0000000000000934       0x17 /apps/intel/composer_xe_2013_sp1.2.144/compiler/lib/intel64/libifcoremt.a(for_default_io_sizes_env_init.o)
 .comment       0x000000000000094b       0x17 /apps/intel/composer_xe_2013_sp1.2.144/compiler/lib/intel64/libifcoremt.a(for_exit.o)
 .comment       0x0000000000000962       0x17 /apps/intel/composer_xe_2013_sp1.2.144/compiler/lib/intel64/libifcoremt.a(for_fmt_comp.o)
 .comment       0x0000000000000979       0x17 /apps/intel/composer_xe_2013_sp1.2.144/compiler/lib/intel64/libifcoremt.a(for_fmt_val.o)
 .comment       0x0000000000000990       0x17 /apps/intel/composer_xe_2013_sp1.2.144/compiler/lib/intel64/libifcoremt.a(for_get.o)
 .comment       0x00000000000009a7       0x17 /apps/intel/composer_xe_2013_sp1.2.144/compiler/lib/intel64/libifcoremt.a(for_intrp_fmt.o)
 .comment       0x00000000000009be       0x17 /apps/intel/composer_xe_2013_sp1.2.144/compiler/lib/intel64/libifcoremt.a(for_ldir_wfs.o)
 .comment       0x00000000000009d5       0x17 /apps/intel/composer_xe_2013_sp1.2.144/compiler/lib/intel64/libifcoremt.a(for_rint_lis.o)
 .comment       0x00000000000009ec       0x17 /apps/intel/composer_xe_2013_sp1.2.144/compiler/lib/intel64/libifcoremt.a(for_rseq_lis.o)
 .comment       0x0000000000000a03       0x17 /apps/intel/composer_xe_2013_sp1.2.144/compiler/lib/intel64/libifcoremt.a(cvt__globals.o)
 .comment       0x0000000000000a1a       0x17 /apps/intel/composer_xe_2013_sp1.2.144/compiler/lib/intel64/libifcoremt.a(cvt_int_to_text.o)
 .comment       0x0000000000000a31       0x17 /apps/intel/composer_xe_2013_sp1.2.144/compiler/lib/intel64/libifcoremt.a(cvt_data_to_text.o)
 .comment       0x0000000000000a48       0x17 /apps/intel/composer_xe_2013_sp1.2.144/compiler/lib/intel64/libifcoremt.a(cvt_log_to_text.o)
 .comment       0x0000000000000a5f       0x17 /apps/intel/composer_xe_2013_sp1.2.144/compiler/lib/intel64/libifcoremt.a(cvt_text_to_int.o)
 .comment       0x0000000000000a76       0x17 /apps/intel/composer_xe_2013_sp1.2.144/compiler/lib/intel64/libifcoremt.a(cvt_text_to_data.o)
 .comment       0x0000000000000a8d       0x17 /apps/intel/composer_xe_2013_sp1.2.144/compiler/lib/intel64/libifcoremt.a(cvt_text_to_log.o)
 .comment       0x0000000000000aa4       0x17 /apps/intel/composer_xe_2013_sp1.2.144/compiler/lib/intel64/libifcoremt.a(cvt_cvtas_t.o)
 .comment       0x0000000000000abb       0x17 /apps/intel/composer_xe_2013_sp1.2.144/compiler/lib/intel64/libifcoremt.a(cvt_cvtas_s.o)
 .comment       0x0000000000000ad2       0x17 /apps/intel/composer_xe_2013_sp1.2.144/compiler/lib/intel64/libifcoremt.a(cvt_cvtas_x.o)
 .comment       0x0000000000000ae9       0x17 /apps/intel/composer_xe_2013_sp1.2.144/compiler/lib/intel64/libifcoremt.a(cvtas_a_to_s.o)
 .comment       0x0000000000000b00       0x17 /apps/intel/composer_xe_2013_sp1.2.144/compiler/lib/intel64/libifcoremt.a(cvtas_a_to_t.o)
 .comment       0x0000000000000b17       0x17 /apps/intel/composer_xe_2013_sp1.2.144/compiler/lib/intel64/libifcoremt.a(cvtas_s_to_a.o)
 .comment       0x0000000000000b2e       0x17 /apps/intel/composer_xe_2013_sp1.2.144/compiler/lib/intel64/libifcoremt.a(cvtas_t_to_a.o)
 .comment       0x0000000000000b45       0x17 /apps/intel/composer_xe_2013_sp1.2.144/compiler/lib/intel64/libifcoremt.a(cvtas_nan_s.o)
 .comment       0x0000000000000b5c       0x17 /apps/intel/composer_xe_2013_sp1.2.144/compiler/lib/intel64/libifcoremt.a(cvtas_nan_t.o)
 .comment       0x0000000000000b73       0x17 /apps/intel/composer_xe_2013_sp1.2.144/compiler/lib/intel64/libifcoremt.a(cvtas_a_to_x.o)
 .comment       0x0000000000000b8a       0x17 /apps/intel/composer_xe_2013_sp1.2.144/compiler/lib/intel64/libifcoremt.a(cvtas_x_to_a.o)
 .comment       0x0000000000000ba1       0x17 /apps/intel/composer_xe_2013_sp1.2.144/compiler/lib/intel64/libifcoremt.a(cvtas_nan_x.o)
 .comment       0x0000000000000bb8       0x17 /apps/intel/composer_xe_2013_sp1.2.144/compiler/lib/intel64/libifcoremt.a(cvtas_globals.o)
 .comment       0x0000000000000bcf       0x17 /apps/intel/composer_xe_2013_sp1.2.144/compiler/lib/intel64/libifcoremt.a(cvtas_pow_ten_53.o)
 .comment       0x0000000000000be6       0x17 /apps/intel/composer_xe_2013_sp1.2.144/compiler/lib/intel64/libifcoremt.a(cvtas_pow_ten_64.o)
 .comment       0x0000000000000bfd       0x17 /apps/intel/composer_xe_2013_sp1.2.144/compiler/lib/intel64/libifcoremt.a(cvtas_pow_ten_128.o)
 .comment       0x0000000000000c14       0x2a /apps/intel/composer_xe_2013_sp1.2.144/compiler/lib/intel64/libimf.a(asinf_stub.o)
 .comment       0x0000000000000c3e       0x17 /apps/intel/composer_xe_2013_sp1.2.144/compiler/lib/intel64/libimf.a(asin.o)
 .comment       0x0000000000000c55       0x17 /apps/intel/composer_xe_2013_sp1.2.144/compiler/lib/intel64/libimf.a(fetestexcept.o)
 .comment       0x0000000000000c6c       0x17 /apps/intel/composer_xe_2013_sp1.2.144/compiler/lib/intel64/libimf.a(f__powi4i4.o)
 .comment       0x0000000000000c83       0x17 /apps/intel/composer_xe_2013_sp1.2.144/compiler/lib/intel64/libimf.a(f__powr4i4.o)
 .comment       0x0000000000000c9a       0x17 /apps/intel/composer_xe_2013_sp1.2.144/compiler/lib/intel64/libimf.a(libm_error.o)
 .comment       0x0000000000000cb1       0x2a /apps/intel/composer_xe_2013_sp1.2.144/compiler/lib/intel64/libimf.a(log10f_stub.o)
 .comment       0x0000000000000cdb       0x2a /apps/intel/composer_xe_2013_sp1.2.144/compiler/lib/intel64/libimf.a(log10_stub.o)
 .comment       0x0000000000000d05       0x2a /apps/intel/composer_xe_2013_sp1.2.144/compiler/lib/intel64/libimf.a(logf_stub.o)
 .comment       0x0000000000000d2f       0x17 /apps/intel/composer_xe_2013_sp1.2.144/compiler/lib/intel64/libimf.a(matherrf.o)
 .comment       0x0000000000000d46       0x17 /apps/intel/composer_xe_2013_sp1.2.144/compiler/lib/intel64/libimf.a(matherrl.o)
 .comment       0x0000000000000d5d       0x17 /apps/intel/composer_xe_2013_sp1.2.144/compiler/lib/intel64/libimf.a(matherr.o)
 .comment       0x0000000000000d74       0x17 /apps/intel/composer_xe_2013_sp1.2.144/compiler/lib/intel64/libimf.a(asinf_ct.o)
 .comment       0x0000000000000d8b       0x17 /apps/intel/composer_xe_2013_sp1.2.144/compiler/lib/intel64/libimf.a(asinf_gen.o)
 .comment       0x0000000000000da2       0x17 /apps/intel/composer_xe_2013_sp1.2.144/compiler/lib/intel64/libimf.a(log10_ct.o)
 .comment       0x0000000000000db9       0x17 /apps/intel/composer_xe_2013_sp1.2.144/compiler/lib/intel64/libimf.a(log10f_ct.o)
 .comment       0x0000000000000dd0       0x17 /apps/intel/composer_xe_2013_sp1.2.144/compiler/lib/intel64/libimf.a(log10f_gen.o)
 .comment       0x0000000000000de7       0x17 /apps/intel/composer_xe_2013_sp1.2.144/compiler/lib/intel64/libimf.a(log10_gen.o)
 .comment       0x0000000000000dfe       0x17 /apps/intel/composer_xe_2013_sp1.2.144/compiler/lib/intel64/libimf.a(logf_ct.o)
 .comment       0x0000000000000e15       0x17 /apps/intel/composer_xe_2013_sp1.2.144/compiler/lib/intel64/libimf.a(logf_gen.o)
 .comment       0x0000000000000e2c       0x17 /apps/intel/composer_xe_2013_sp1.2.144/compiler/lib/intel64/libimf.a(logf_table.o)
 .comment       0x0000000000000e43       0x17 /apps/intel/composer_xe_2013_sp1.2.144/compiler/lib/intel64/libimf.a(rcp_table.o)
 .comment       0x0000000000000e5a       0x17 /apps/intel/composer_xe_2013_sp1.2.144/compiler/lib/intel64/libsvml.a(svml_dcos2_la_iface.o)
 .comment       0x0000000000000e71       0x17 /apps/intel/composer_xe_2013_sp1.2.144/compiler/lib/intel64/libsvml.a(svml_dcos2_y8la.o)
 .comment       0x0000000000000e88       0x17 /apps/intel/composer_xe_2013_sp1.2.144/compiler/lib/intel64/libsvml.a(svml_sroundf4_la_iface.o)
 .comment       0x0000000000000e9f       0x17 /apps/intel/composer_xe_2013_sp1.2.144/compiler/lib/intel64/libsvml.a(svml_sroundf4_y8la.o)
 .comment       0x0000000000000eb6       0x2a /apps/intel/composer_xe_2013_sp1.2.144/compiler/lib/intel64/libsvml.a(svml_d_feature_flag_.o)
 .comment       0x0000000000000ee0       0x17 /apps/intel/composer_xe_2013_sp1.2.144/compiler/lib/intel64/libsvml.a(svml_dcos2_e7la.o)
 .comment       0x0000000000000ef7       0x17 /apps/intel/composer_xe_2013_sp1.2.144/compiler/lib/intel64/libsvml.a(svml_dcos2_exla.o)
 .comment       0x0000000000000f0e       0x17 /apps/intel/composer_xe_2013_sp1.2.144/compiler/lib/intel64/libsvml.a(svml_dcos2_h9la.o)
 .comment       0x0000000000000f25       0x17 /apps/intel/composer_xe_2013_sp1.2.144/compiler/lib/intel64/libsvml.a(svml_s_round_data_exla.o)
 .comment       0x0000000000000f3c       0x17 /apps/intel/composer_xe_2013_sp1.2.144/compiler/lib/intel64/libsvml.a(svml_sroundf4_e7la.o)
 .comment       0x0000000000000f53       0x17 /apps/intel/composer_xe_2013_sp1.2.144/compiler/lib/intel64/libsvml.a(svml_sroundf4_exla.o)
 .comment       0x0000000000000f6a       0x17 /apps/intel/composer_xe_2013_sp1.2.144/compiler/lib/intel64/libsvml.a(svml_sroundf4_h9la.o)
 .comment       0x0000000000000f81       0x17 /apps/intel/composer_xe_2013_sp1.2.144/compiler/lib/intel64/libirc.a(q2ints.o)
 .comment       0x0000000000000f98       0x17 /apps/intel/composer_xe_2013_sp1.2.144/compiler/lib/intel64/libirc.a(tbk_display.o)
 .comment       0x0000000000000faf       0x17 /apps/intel/composer_xe_2013_sp1.2.144/compiler/lib/intel64/libirc.a(tbk_backtrace.o)
 .comment       0x0000000000000fc6       0x17 /apps/intel/composer_xe_2013_sp1.2.144/compiler/lib/intel64/libirc.a(cpu_feature_disp.o)
 .comment       0x0000000000000fdd       0x17 /apps/intel/composer_xe_2013_sp1.2.144/compiler/lib/intel64/libirc.a(ia32_memcmp.o)
 .comment       0x0000000000000ff4       0x2a /apps/intel/composer_xe_2013_sp1.2.144/compiler/lib/intel64/libirc.a(fastmemcpy.o)
 .comment       0x000000000000101e       0x2a /apps/intel/composer_xe_2013_sp1.2.144/compiler/lib/intel64/libirc.a(fastmemmove.o)
 .comment       0x0000000000001048       0x2a /apps/intel/composer_xe_2013_sp1.2.144/compiler/lib/intel64/libirc.a(fastmemset.o)
 .comment       0x0000000000001072       0x17 /apps/intel/composer_xe_2013_sp1.2.144/compiler/lib/intel64/libirc.a(new_proc_init.o)
 .comment       0x0000000000001089       0x17 /apps/intel/composer_xe_2013_sp1.2.144/compiler/lib/intel64/libirc.a(sse2_strcspn.o)
 .comment       0x00000000000010a0       0x17 /apps/intel/composer_xe_2013_sp1.2.144/compiler/lib/intel64/libirc.a(sse2_strcpy.o)
 .comment       0x00000000000010b7       0x17 /apps/intel/composer_xe_2013_sp1.2.144/compiler/lib/intel64/libirc.a(sse2_strncpy.o)
 .comment       0x00000000000010ce       0x17 /apps/intel/composer_xe_2013_sp1.2.144/compiler/lib/intel64/libirc.a(sse2_strlen.o)
 .comment       0x00000000000010e5       0x17 /apps/intel/composer_xe_2013_sp1.2.144/compiler/lib/intel64/libirc.a(sse2_strchr.o)
 .comment       0x00000000000010fc       0x17 /apps/intel/composer_xe_2013_sp1.2.144/compiler/lib/intel64/libirc.a(sse2_strncmp.o)
 .comment       0x0000000000001113       0x17 /apps/intel/composer_xe_2013_sp1.2.144/compiler/lib/intel64/libirc.a(sse2_strcat.o)
 .comment       0x000000000000112a       0x17 /apps/intel/composer_xe_2013_sp1.2.144/compiler/lib/intel64/libirc.a(sse2_strncat.o)
 .comment       0x0000000000001141       0x17 /apps/intel/composer_xe_2013_sp1.2.144/compiler/lib/intel64/libirc.a(irc_msg_support.o)
 .comment       0x0000000000001158       0x17 /apps/intel/composer_xe_2013_sp1.2.144/compiler/lib/intel64/libirc.a(fast_mem_ops.o)
 .comment       0x000000000000116f       0x17 /apps/intel/composer_xe_2013_sp1.2.144/compiler/lib/intel64/libirc.a(proc_init_utils.o)
 .comment       0x0000000000001186       0x2e /usr/lib64/libc_nonshared.a(elf-init.oS)
 .comment       0x0000000000001186       0x2e /usr/lib/gcc/x86_64-redhat-linux/4.8.5/crtend.o

.debug
 *(.debug)

.line
 *(.line)

.debug_srcinfo
 *(.debug_srcinfo)

.debug_sfnames
 *(.debug_sfnames)

.debug_aranges  0x0000000000000000      0x480
 *(.debug_aranges)
 .debug_aranges
                0x0000000000000000       0x30 /apps/netcdf/3.6.3-intel/lib/libnetcdf.a(fort-attio.o)
 .debug_aranges
                0x0000000000000030       0x30 /apps/netcdf/3.6.3-intel/lib/libnetcdf.a(fort-control.o)
 .debug_aranges
                0x0000000000000060       0x30 /apps/netcdf/3.6.3-intel/lib/libnetcdf.a(fort-dim.o)
 .debug_aranges
                0x0000000000000090       0x30 /apps/netcdf/3.6.3-intel/lib/libnetcdf.a(fort-genatt.o)
 .debug_aranges
                0x00000000000000c0       0x30 /apps/netcdf/3.6.3-intel/lib/libnetcdf.a(fort-geninq.o)
 .debug_aranges
                0x00000000000000f0       0x30 /apps/netcdf/3.6.3-intel/lib/libnetcdf.a(fort-genvar.o)
 .debug_aranges
                0x0000000000000120       0x30 /apps/netcdf/3.6.3-intel/lib/libnetcdf.a(fort-lib.o)
 .debug_aranges
                0x0000000000000150       0x30 /apps/netcdf/3.6.3-intel/lib/libnetcdf.a(fort-misc.o)
 .debug_aranges
                0x0000000000000180       0x30 /apps/netcdf/3.6.3-intel/lib/libnetcdf.a(fort-var1io.o)
 .debug_aranges
                0x00000000000001b0       0x30 /apps/netcdf/3.6.3-intel/lib/libnetcdf.a(fort-varaio.o)
 .debug_aranges
                0x00000000000001e0       0x30 /apps/netcdf/3.6.3-intel/lib/libnetcdf.a(fort-varmio.o)
 .debug_aranges
                0x0000000000000210       0x30 /apps/netcdf/3.6.3-intel/lib/libnetcdf.a(fort-varsio.o)
 .debug_aranges
                0x0000000000000240       0x30 /apps/netcdf/3.6.3-intel/lib/libnetcdf.a(attr.o)
 .debug_aranges
                0x0000000000000270       0x30 /apps/netcdf/3.6.3-intel/lib/libnetcdf.a(ncx.o)
 .debug_aranges
                0x00000000000002a0       0x30 /apps/netcdf/3.6.3-intel/lib/libnetcdf.a(putget.o)
 .debug_aranges
                0x00000000000002d0       0x30 /apps/netcdf/3.6.3-intel/lib/libnetcdf.a(dim.o)
 .debug_aranges
                0x0000000000000300       0x30 /apps/netcdf/3.6.3-intel/lib/libnetcdf.a(error.o)
 .debug_aranges
                0x0000000000000330       0x30 /apps/netcdf/3.6.3-intel/lib/libnetcdf.a(libvers.o)
 .debug_aranges
                0x0000000000000360       0x30 /apps/netcdf/3.6.3-intel/lib/libnetcdf.a(nc.o)
 .debug_aranges
                0x0000000000000390       0x30 /apps/netcdf/3.6.3-intel/lib/libnetcdf.a(string.o)
 .debug_aranges
                0x00000000000003c0       0x30 /apps/netcdf/3.6.3-intel/lib/libnetcdf.a(v1hpg.o)
 .debug_aranges
                0x00000000000003f0       0x30 /apps/netcdf/3.6.3-intel/lib/libnetcdf.a(var.o)
 .debug_aranges
                0x0000000000000420       0x30 /apps/netcdf/3.6.3-intel/lib/libnetcdf.a(utf8proc.o)
 .debug_aranges
                0x0000000000000450       0x30 /apps/netcdf/3.6.3-intel/lib/libnetcdf.a(posixio.o)

.debug_pubnames
                0x0000000000000000     0x2bfe
 *(.debug_pubnames)
 .debug_pubnames
                0x0000000000000000      0x110 /apps/netcdf/3.6.3-intel/lib/libnetcdf.a(fort-attio.o)
 .debug_pubnames
                0x0000000000000110      0x13b /apps/netcdf/3.6.3-intel/lib/libnetcdf.a(fort-control.o)
 .debug_pubnames
                0x000000000000024b       0x7e /apps/netcdf/3.6.3-intel/lib/libnetcdf.a(fort-dim.o)
 .debug_pubnames
                0x00000000000002c9       0xa3 /apps/netcdf/3.6.3-intel/lib/libnetcdf.a(fort-genatt.o)
 .debug_pubnames
                0x000000000000036c       0x7c /apps/netcdf/3.6.3-intel/lib/libnetcdf.a(fort-geninq.o)
 .debug_pubnames
                0x00000000000003e8       0xcf /apps/netcdf/3.6.3-intel/lib/libnetcdf.a(fort-genvar.o)
 .debug_pubnames
                0x00000000000004b7       0x91 /apps/netcdf/3.6.3-intel/lib/libnetcdf.a(fort-lib.o)
 .debug_pubnames
                0x0000000000000548       0x48 /apps/netcdf/3.6.3-intel/lib/libnetcdf.a(fort-misc.o)
 .debug_pubnames
                0x0000000000000590      0x13e /apps/netcdf/3.6.3-intel/lib/libnetcdf.a(fort-var1io.o)
 .debug_pubnames
                0x00000000000006ce      0x13e /apps/netcdf/3.6.3-intel/lib/libnetcdf.a(fort-varaio.o)
 .debug_pubnames
                0x000000000000080c      0x11c /apps/netcdf/3.6.3-intel/lib/libnetcdf.a(fort-varmio.o)
 .debug_pubnames
                0x0000000000000928      0x13e /apps/netcdf/3.6.3-intel/lib/libnetcdf.a(fort-varsio.o)
 .debug_pubnames
                0x0000000000000a66      0x273 /apps/netcdf/3.6.3-intel/lib/libnetcdf.a(attr.o)
 .debug_pubnames
                0x0000000000000cd9      0xff6 /apps/netcdf/3.6.3-intel/lib/libnetcdf.a(ncx.o)
 .debug_pubnames
                0x0000000000001ccf      0x790 /apps/netcdf/3.6.3-intel/lib/libnetcdf.a(putget.o)
 .debug_pubnames
                0x000000000000245f      0x101 /apps/netcdf/3.6.3-intel/lib/libnetcdf.a(dim.o)
 .debug_pubnames
                0x0000000000002560       0x22 /apps/netcdf/3.6.3-intel/lib/libnetcdf.a(error.o)
 .debug_pubnames
                0x0000000000002582       0x25 /apps/netcdf/3.6.3-intel/lib/libnetcdf.a(libvers.o)
 .debug_pubnames
                0x00000000000025a7      0x214 /apps/netcdf/3.6.3-intel/lib/libnetcdf.a(nc.o)
 .debug_pubnames
                0x00000000000027bb       0x68 /apps/netcdf/3.6.3-intel/lib/libnetcdf.a(string.o)
 .debug_pubnames
                0x0000000000002823       0x3e /apps/netcdf/3.6.3-intel/lib/libnetcdf.a(v1hpg.o)
 .debug_pubnames
                0x0000000000002861      0x168 /apps/netcdf/3.6.3-intel/lib/libnetcdf.a(var.o)
 .debug_pubnames
                0x00000000000029c9      0x1d0 /apps/netcdf/3.6.3-intel/lib/libnetcdf.a(utf8proc.o)
 .debug_pubnames
                0x0000000000002b99       0x65 /apps/netcdf/3.6.3-intel/lib/libnetcdf.a(posixio.o)

.debug_info     0x0000000000000000    0xaaa19
 *(.debug_info .gnu.linkonce.wi.*)
 .debug_info    0x0000000000000000    0x349d6 /scratch3/NCEPDEV/nwprod/lib/nemsio/v2.2.1/libnemsio_v2.2.1.a(nemsio_openclose.o)
 .debug_info    0x00000000000349d6    0x12ea9 /scratch3/NCEPDEV/nwprod/lib/nemsio/v2.2.1/libnemsio_v2.2.1.a(nemsio_read.o)
 .debug_info    0x000000000004787f    0x2273a /scratch3/NCEPDEV/nwprod/lib/nemsio/v2.2.1/libnemsio_v2.2.1.a(nemsio_write.o)
 .debug_info    0x0000000000069fb9      0x2a6 /scratch3/NCEPDEV/nwprod/lib/w3nco/v2.0.6/libw3nco_v2.0.6_4.a(getgbm.o)
 .debug_info    0x000000000006a25f      0x151 /scratch3/NCEPDEV/nwprod/lib/w3nco/v2.0.6/libw3nco_v2.0.6_4.a(getgi.o)
 .debug_info    0x000000000006a3b0      0x155 /scratch3/NCEPDEV/nwprod/lib/w3nco/v2.0.6/libw3nco_v2.0.6_4.a(getgir.o)
 .debug_info    0x000000000006a505      0x288 /scratch3/NCEPDEV/nwprod/lib/w3nco/v2.0.6/libw3nco_v2.0.6_4.a(ixgb.o)
 .debug_info    0x000000000006a78d       0x7a /scratch3/NCEPDEV/nwprod/lib/w3nco/v2.0.6/libw3nco_v2.0.6_4.a(lengds.o)
 .debug_info    0x000000000006a807      0x2ce /scratch3/NCEPDEV/nwprod/lib/w3nco/v2.0.6/libw3nco_v2.0.6_4.a(putgben.o)
 .debug_info    0x000000000006aad5       0xc5 /scratch3/NCEPDEV/nwprod/lib/w3nco/v2.0.6/libw3nco_v2.0.6_4.a(r63w72.o)
 .debug_info    0x000000000006ab9a       0xb5 /scratch3/NCEPDEV/nwprod/lib/w3nco/v2.0.6/libw3nco_v2.0.6_4.a(sbytec.o)
 .debug_info    0x000000000006ac4f      0x17d /scratch3/NCEPDEV/nwprod/lib/w3nco/v2.0.6/libw3nco_v2.0.6_4.a(sbytesc.o)
 .debug_info    0x000000000006adcc      0x169 /scratch3/NCEPDEV/nwprod/lib/w3nco/v2.0.6/libw3nco_v2.0.6_4.a(skgb.o)
 .debug_info    0x000000000006af35       0xcc /scratch3/NCEPDEV/nwprod/lib/w3nco/v2.0.6/libw3nco_v2.0.6_4.a(w3fi68.o)
 .debug_info    0x000000000006b001      0x48c /scratch3/NCEPDEV/nwprod/lib/w3nco/v2.0.6/libw3nco_v2.0.6_4.a(w3fi72.o)
 .debug_info    0x000000000006b48d      0x110 /scratch3/NCEPDEV/nwprod/lib/w3nco/v2.0.6/libw3nco_v2.0.6_4.a(w3fi73.o)
 .debug_info    0x000000000006b59d      0x152 /scratch3/NCEPDEV/nwprod/lib/w3nco/v2.0.6/libw3nco_v2.0.6_4.a(w3fi74.o)
 .debug_info    0x000000000006b6ef     0x2170 /scratch3/NCEPDEV/nwprod/lib/w3nco/v2.0.6/libw3nco_v2.0.6_4.a(w3fi75.o)
 .debug_info    0x000000000006d85f       0xc8 /scratch3/NCEPDEV/nwprod/lib/w3nco/v2.0.6/libw3nco_v2.0.6_4.a(w3fi76.o)
 .debug_info    0x000000000006d927      0x157 /scratch3/NCEPDEV/nwprod/lib/w3nco/v2.0.6/libw3nco_v2.0.6_4.a(w3fi82.o)
 .debug_info    0x000000000006da7e       0xb5 /scratch3/NCEPDEV/nwprod/lib/w3nco/v2.0.6/libw3nco_v2.0.6_4.a(gbytec.o)
 .debug_info    0x000000000006db33      0x14c /scratch3/NCEPDEV/nwprod/lib/w3nco/v2.0.6/libw3nco_v2.0.6_4.a(gbytesc.o)
 .debug_info    0x000000000006dc7f      0x14b /scratch3/NCEPDEV/nwprod/lib/w3nco/v2.0.6/libw3nco_v2.0.6_4.a(getbit.o)
 .debug_info    0x000000000006ddca      0x1d3 /scratch3/NCEPDEV/nwprod/lib/w3nco/v2.0.6/libw3nco_v2.0.6_4.a(getgb1r.o)
 .debug_info    0x000000000006df9d      0x35f /scratch3/NCEPDEV/nwprod/lib/w3nco/v2.0.6/libw3nco_v2.0.6_4.a(getgb1s.o)
 .debug_info    0x000000000006e2fc      0x164 /scratch3/NCEPDEV/nwprod/lib/w3nco/v2.0.6/libw3nco_v2.0.6_4.a(pdsens.o)
 .debug_info    0x000000000006e460      0x15c /scratch3/NCEPDEV/nwprod/lib/w3nco/v2.0.6/libw3nco_v2.0.6_4.a(pdseup.o)
 .debug_info    0x000000000006e5bc       0x5e /scratch3/NCEPDEV/nwprod/lib/w3nco/v2.0.6/libw3nco_v2.0.6_4.a(w3fi01.o)
 .debug_info    0x000000000006e61a      0x15d /scratch3/NCEPDEV/nwprod/lib/w3nco/v2.0.6/libw3nco_v2.0.6_4.a(w3fi58.o)
 .debug_info    0x000000000006e777      0x182 /scratch3/NCEPDEV/nwprod/lib/w3nco/v2.0.6/libw3nco_v2.0.6_4.a(w3fi59.o)
 .debug_info    0x000000000006e8f9     0x18d3 /scratch3/NCEPDEV/nwprod/lib/w3nco/v2.0.6/libw3nco_v2.0.6_4.a(w3fi63.o)
 .debug_info    0x00000000000701cc     0x1689 /scratch3/NCEPDEV/nwprod/lib/w3nco/v2.0.6/libw3nco_v2.0.6_4.a(w3fi71.o)
 .debug_info    0x0000000000071855      0x179 /scratch3/NCEPDEV/nwprod/lib/w3nco/v2.0.6/libw3nco_v2.0.6_4.a(w3fi83.o)
 .debug_info    0x00000000000719ce    0x11991 /apps/netcdf/3.6.3-intel/lib/libnetcdf.a(netcdf.o)
 .debug_info    0x000000000008335f      0xb0a /apps/netcdf/3.6.3-intel/lib/libnetcdf.a(fort-attio.o)
 .debug_info    0x0000000000083e69      0xaf1 /apps/netcdf/3.6.3-intel/lib/libnetcdf.a(fort-control.o)
 .debug_info    0x000000000008495a      0x65e /apps/netcdf/3.6.3-intel/lib/libnetcdf.a(fort-dim.o)
 .debug_info    0x0000000000084fb8      0x842 /apps/netcdf/3.6.3-intel/lib/libnetcdf.a(fort-genatt.o)
 .debug_info    0x00000000000857fa      0x551 /apps/netcdf/3.6.3-intel/lib/libnetcdf.a(fort-geninq.o)
 .debug_info    0x0000000000085d4b      0x8c5 /apps/netcdf/3.6.3-intel/lib/libnetcdf.a(fort-genvar.o)
 .debug_info    0x0000000000086610      0x6a4 /apps/netcdf/3.6.3-intel/lib/libnetcdf.a(fort-lib.o)
 .debug_info    0x0000000000086cb4      0x3ed /apps/netcdf/3.6.3-intel/lib/libnetcdf.a(fort-misc.o)
 .debug_info    0x00000000000870a1      0xa22 /apps/netcdf/3.6.3-intel/lib/libnetcdf.a(fort-var1io.o)
 .debug_info    0x0000000000087ac3      0xbb8 /apps/netcdf/3.6.3-intel/lib/libnetcdf.a(fort-varaio.o)
 .debug_info    0x000000000008867b      0xd52 /apps/netcdf/3.6.3-intel/lib/libnetcdf.a(fort-varmio.o)
 .debug_info    0x00000000000893cd      0xd68 /apps/netcdf/3.6.3-intel/lib/libnetcdf.a(fort-varsio.o)
 .debug_info    0x000000000008a135     0x30c6 /apps/netcdf/3.6.3-intel/lib/libnetcdf.a(attr.o)
 .debug_info    0x000000000008d1fb     0x6d06 /apps/netcdf/3.6.3-intel/lib/libnetcdf.a(ncx.o)
 .debug_info    0x0000000000093f01     0xd8ec /apps/netcdf/3.6.3-intel/lib/libnetcdf.a(putget.o)
 .debug_info    0x00000000000a17ed      0xe4d /apps/netcdf/3.6.3-intel/lib/libnetcdf.a(dim.o)
 .debug_info    0x00000000000a263a      0x355 /apps/netcdf/3.6.3-intel/lib/libnetcdf.a(error.o)
 .debug_info    0x00000000000a298f       0x9e /apps/netcdf/3.6.3-intel/lib/libnetcdf.a(libvers.o)
 .debug_info    0x00000000000a2a2d     0x20d2 /apps/netcdf/3.6.3-intel/lib/libnetcdf.a(nc.o)
 .debug_info    0x00000000000a4aff      0x5a8 /apps/netcdf/3.6.3-intel/lib/libnetcdf.a(string.o)
 .debug_info    0x00000000000a50a7     0x1ee3 /apps/netcdf/3.6.3-intel/lib/libnetcdf.a(v1hpg.o)
 .debug_info    0x00000000000a6f8a     0x121e /apps/netcdf/3.6.3-intel/lib/libnetcdf.a(var.o)
 .debug_info    0x00000000000a81a8      0xc01 /apps/netcdf/3.6.3-intel/lib/libnetcdf.a(utf8proc.o)
 .debug_info    0x00000000000a8da9     0x1c70 /apps/netcdf/3.6.3-intel/lib/libnetcdf.a(posixio.o)

.debug_abbrev   0x0000000000000000     0x4c7c
 *(.debug_abbrev)
 .debug_abbrev  0x0000000000000000      0x33a /scratch3/NCEPDEV/nwprod/lib/nemsio/v2.2.1/libnemsio_v2.2.1.a(nemsio_openclose.o)
 .debug_abbrev  0x000000000000033a      0x1e5 /scratch3/NCEPDEV/nwprod/lib/nemsio/v2.2.1/libnemsio_v2.2.1.a(nemsio_read.o)
 .debug_abbrev  0x000000000000051f      0x31b /scratch3/NCEPDEV/nwprod/lib/nemsio/v2.2.1/libnemsio_v2.2.1.a(nemsio_write.o)
 .debug_abbrev  0x000000000000083a       0xc4 /scratch3/NCEPDEV/nwprod/lib/w3nco/v2.0.6/libw3nco_v2.0.6_4.a(getgbm.o)
 .debug_abbrev  0x00000000000008fe       0x95 /scratch3/NCEPDEV/nwprod/lib/w3nco/v2.0.6/libw3nco_v2.0.6_4.a(getgi.o)
 .debug_abbrev  0x0000000000000993       0x97 /scratch3/NCEPDEV/nwprod/lib/w3nco/v2.0.6/libw3nco_v2.0.6_4.a(getgir.o)
 .debug_abbrev  0x0000000000000a2a       0x9c /scratch3/NCEPDEV/nwprod/lib/w3nco/v2.0.6/libw3nco_v2.0.6_4.a(ixgb.o)
 .debug_abbrev  0x0000000000000ac6       0x68 /scratch3/NCEPDEV/nwprod/lib/w3nco/v2.0.6/libw3nco_v2.0.6_4.a(lengds.o)
 .debug_abbrev  0x0000000000000b2e       0xad /scratch3/NCEPDEV/nwprod/lib/w3nco/v2.0.6/libw3nco_v2.0.6_4.a(putgben.o)
 .debug_abbrev  0x0000000000000bdb       0x66 /scratch3/NCEPDEV/nwprod/lib/w3nco/v2.0.6/libw3nco_v2.0.6_4.a(r63w72.o)
 .debug_abbrev  0x0000000000000c41       0x84 /scratch3/NCEPDEV/nwprod/lib/w3nco/v2.0.6/libw3nco_v2.0.6_4.a(sbytec.o)
 .debug_abbrev  0x0000000000000cc5       0xc7 /scratch3/NCEPDEV/nwprod/lib/w3nco/v2.0.6/libw3nco_v2.0.6_4.a(sbytesc.o)
 .debug_abbrev  0x0000000000000d8c       0x82 /scratch3/NCEPDEV/nwprod/lib/w3nco/v2.0.6/libw3nco_v2.0.6_4.a(skgb.o)
 .debug_abbrev  0x0000000000000e0e       0x8f /scratch3/NCEPDEV/nwprod/lib/w3nco/v2.0.6/libw3nco_v2.0.6_4.a(w3fi68.o)
 .debug_abbrev  0x0000000000000e9d      0x127 /scratch3/NCEPDEV/nwprod/lib/w3nco/v2.0.6/libw3nco_v2.0.6_4.a(w3fi72.o)
 .debug_abbrev  0x0000000000000fc4       0xb7 /scratch3/NCEPDEV/nwprod/lib/w3nco/v2.0.6/libw3nco_v2.0.6_4.a(w3fi73.o)
 .debug_abbrev  0x000000000000107b       0xc4 /scratch3/NCEPDEV/nwprod/lib/w3nco/v2.0.6/libw3nco_v2.0.6_4.a(w3fi74.o)
 .debug_abbrev  0x000000000000113f      0x1f7 /scratch3/NCEPDEV/nwprod/lib/w3nco/v2.0.6/libw3nco_v2.0.6_4.a(w3fi75.o)
 .debug_abbrev  0x0000000000001336       0x65 /scratch3/NCEPDEV/nwprod/lib/w3nco/v2.0.6/libw3nco_v2.0.6_4.a(w3fi76.o)
 .debug_abbrev  0x000000000000139b       0xcf /scratch3/NCEPDEV/nwprod/lib/w3nco/v2.0.6/libw3nco_v2.0.6_4.a(w3fi82.o)
 .debug_abbrev  0x000000000000146a       0x84 /scratch3/NCEPDEV/nwprod/lib/w3nco/v2.0.6/libw3nco_v2.0.6_4.a(gbytec.o)
 .debug_abbrev  0x00000000000014ee       0xbe /scratch3/NCEPDEV/nwprod/lib/w3nco/v2.0.6/libw3nco_v2.0.6_4.a(gbytesc.o)
 .debug_abbrev  0x00000000000015ac       0x8c /scratch3/NCEPDEV/nwprod/lib/w3nco/v2.0.6/libw3nco_v2.0.6_4.a(getbit.o)
 .debug_abbrev  0x0000000000001638       0x94 /scratch3/NCEPDEV/nwprod/lib/w3nco/v2.0.6/libw3nco_v2.0.6_4.a(getgb1r.o)
 .debug_abbrev  0x00000000000016cc       0xd1 /scratch3/NCEPDEV/nwprod/lib/w3nco/v2.0.6/libw3nco_v2.0.6_4.a(getgb1s.o)
 .debug_abbrev  0x000000000000179d       0xa6 /scratch3/NCEPDEV/nwprod/lib/w3nco/v2.0.6/libw3nco_v2.0.6_4.a(pdsens.o)
 .debug_abbrev  0x0000000000001843       0x97 /scratch3/NCEPDEV/nwprod/lib/w3nco/v2.0.6/libw3nco_v2.0.6_4.a(pdseup.o)
 .debug_abbrev  0x00000000000018da       0x45 /scratch3/NCEPDEV/nwprod/lib/w3nco/v2.0.6/libw3nco_v2.0.6_4.a(w3fi01.o)
 .debug_abbrev  0x000000000000191f       0xb5 /scratch3/NCEPDEV/nwprod/lib/w3nco/v2.0.6/libw3nco_v2.0.6_4.a(w3fi58.o)
 .debug_abbrev  0x00000000000019d4       0xb5 /scratch3/NCEPDEV/nwprod/lib/w3nco/v2.0.6/libw3nco_v2.0.6_4.a(w3fi59.o)
 .debug_abbrev  0x0000000000001a89      0x1c2 /scratch3/NCEPDEV/nwprod/lib/w3nco/v2.0.6/libw3nco_v2.0.6_4.a(w3fi63.o)
 .debug_abbrev  0x0000000000001c4b       0x7e /scratch3/NCEPDEV/nwprod/lib/w3nco/v2.0.6/libw3nco_v2.0.6_4.a(w3fi71.o)
 .debug_abbrev  0x0000000000001cc9       0x8f /scratch3/NCEPDEV/nwprod/lib/w3nco/v2.0.6/libw3nco_v2.0.6_4.a(w3fi83.o)
 .debug_abbrev  0x0000000000001d58      0x16b /apps/netcdf/3.6.3-intel/lib/libnetcdf.a(netcdf.o)
 .debug_abbrev  0x0000000000001ec3      0x189 /apps/netcdf/3.6.3-intel/lib/libnetcdf.a(fort-attio.o)
 .debug_abbrev  0x000000000000204c      0x180 /apps/netcdf/3.6.3-intel/lib/libnetcdf.a(fort-control.o)
 .debug_abbrev  0x00000000000021cc      0x164 /apps/netcdf/3.6.3-intel/lib/libnetcdf.a(fort-dim.o)
 .debug_abbrev  0x0000000000002330      0x16b /apps/netcdf/3.6.3-intel/lib/libnetcdf.a(fort-genatt.o)
 .debug_abbrev  0x000000000000249b       0xf7 /apps/netcdf/3.6.3-intel/lib/libnetcdf.a(fort-geninq.o)
 .debug_abbrev  0x0000000000002592      0x19f /apps/netcdf/3.6.3-intel/lib/libnetcdf.a(fort-genvar.o)
 .debug_abbrev  0x0000000000002731      0x10d /apps/netcdf/3.6.3-intel/lib/libnetcdf.a(fort-lib.o)
 .debug_abbrev  0x000000000000283e      0x144 /apps/netcdf/3.6.3-intel/lib/libnetcdf.a(fort-misc.o)
 .debug_abbrev  0x0000000000002982      0x116 /apps/netcdf/3.6.3-intel/lib/libnetcdf.a(fort-var1io.o)
 .debug_abbrev  0x0000000000002a98      0x116 /apps/netcdf/3.6.3-intel/lib/libnetcdf.a(fort-varaio.o)
 .debug_abbrev  0x0000000000002bae      0x125 /apps/netcdf/3.6.3-intel/lib/libnetcdf.a(fort-varmio.o)
 .debug_abbrev  0x0000000000002cd3      0x125 /apps/netcdf/3.6.3-intel/lib/libnetcdf.a(fort-varsio.o)
 .debug_abbrev  0x0000000000002df8      0x321 /apps/netcdf/3.6.3-intel/lib/libnetcdf.a(attr.o)
 .debug_abbrev  0x0000000000003119      0x24e /apps/netcdf/3.6.3-intel/lib/libnetcdf.a(ncx.o)
 .debug_abbrev  0x0000000000003367      0x387 /apps/netcdf/3.6.3-intel/lib/libnetcdf.a(putget.o)
 .debug_abbrev  0x00000000000036ee      0x2cc /apps/netcdf/3.6.3-intel/lib/libnetcdf.a(dim.o)
 .debug_abbrev  0x00000000000039ba      0x105 /apps/netcdf/3.6.3-intel/lib/libnetcdf.a(error.o)
 .debug_abbrev  0x0000000000003abf       0x72 /apps/netcdf/3.6.3-intel/lib/libnetcdf.a(libvers.o)
 .debug_abbrev  0x0000000000003b31      0x3cd /apps/netcdf/3.6.3-intel/lib/libnetcdf.a(nc.o)
 .debug_abbrev  0x0000000000003efe      0x1c7 /apps/netcdf/3.6.3-intel/lib/libnetcdf.a(string.o)
 .debug_abbrev  0x00000000000040c5      0x33d /apps/netcdf/3.6.3-intel/lib/libnetcdf.a(v1hpg.o)
 .debug_abbrev  0x0000000000004402      0x2ec /apps/netcdf/3.6.3-intel/lib/libnetcdf.a(var.o)
 .debug_abbrev  0x00000000000046ee      0x24c /apps/netcdf/3.6.3-intel/lib/libnetcdf.a(utf8proc.o)
 .debug_abbrev  0x000000000000493a      0x342 /apps/netcdf/3.6.3-intel/lib/libnetcdf.a(posixio.o)

.debug_line     0x0000000000000000    0x181e7
 *(.debug_line .debug_line.* .debug_line_end)
 .debug_line    0x0000000000000000     0x524e /scratch3/NCEPDEV/nwprod/lib/nemsio/v2.2.1/libnemsio_v2.2.1.a(nemsio_openclose.o)
 .debug_line    0x000000000000524e      0xfbc /scratch3/NCEPDEV/nwprod/lib/nemsio/v2.2.1/libnemsio_v2.2.1.a(nemsio_read.o)
 .debug_line    0x000000000000620a     0x1325 /scratch3/NCEPDEV/nwprod/lib/nemsio/v2.2.1/libnemsio_v2.2.1.a(nemsio_write.o)
 .debug_line    0x000000000000752f      0x13b /scratch3/NCEPDEV/nwprod/lib/w3nco/v2.0.6/libw3nco_v2.0.6_4.a(getgbm.o)
 .debug_line    0x000000000000766a       0xbd /scratch3/NCEPDEV/nwprod/lib/w3nco/v2.0.6/libw3nco_v2.0.6_4.a(getgi.o)
 .debug_line    0x0000000000007727       0xcb /scratch3/NCEPDEV/nwprod/lib/w3nco/v2.0.6/libw3nco_v2.0.6_4.a(getgir.o)
 .debug_line    0x00000000000077f2      0x1be /scratch3/NCEPDEV/nwprod/lib/w3nco/v2.0.6/libw3nco_v2.0.6_4.a(ixgb.o)
 .debug_line    0x00000000000079b0       0x67 /scratch3/NCEPDEV/nwprod/lib/w3nco/v2.0.6/libw3nco_v2.0.6_4.a(lengds.o)
 .debug_line    0x0000000000007a17      0x11a /scratch3/NCEPDEV/nwprod/lib/w3nco/v2.0.6/libw3nco_v2.0.6_4.a(putgben.o)
 .debug_line    0x0000000000007b31      0x102 /scratch3/NCEPDEV/nwprod/lib/w3nco/v2.0.6/libw3nco_v2.0.6_4.a(r63w72.o)
 .debug_line    0x0000000000007c33       0x4b /scratch3/NCEPDEV/nwprod/lib/w3nco/v2.0.6/libw3nco_v2.0.6_4.a(sbytec.o)
 .debug_line    0x0000000000007c7e       0xfa /scratch3/NCEPDEV/nwprod/lib/w3nco/v2.0.6/libw3nco_v2.0.6_4.a(sbytesc.o)
 .debug_line    0x0000000000007d78       0xae /scratch3/NCEPDEV/nwprod/lib/w3nco/v2.0.6/libw3nco_v2.0.6_4.a(skgb.o)
 .debug_line    0x0000000000007e26      0x143 /scratch3/NCEPDEV/nwprod/lib/w3nco/v2.0.6/libw3nco_v2.0.6_4.a(w3fi68.o)
 .debug_line    0x0000000000007f69      0x420 /scratch3/NCEPDEV/nwprod/lib/w3nco/v2.0.6/libw3nco_v2.0.6_4.a(w3fi72.o)
 .debug_line    0x0000000000008389       0xd7 /scratch3/NCEPDEV/nwprod/lib/w3nco/v2.0.6/libw3nco_v2.0.6_4.a(w3fi73.o)
 .debug_line    0x0000000000008460      0x2fa /scratch3/NCEPDEV/nwprod/lib/w3nco/v2.0.6/libw3nco_v2.0.6_4.a(w3fi74.o)
 .debug_line    0x000000000000875a     0x122f /scratch3/NCEPDEV/nwprod/lib/w3nco/v2.0.6/libw3nco_v2.0.6_4.a(w3fi75.o)
 .debug_line    0x0000000000009989       0xbc /scratch3/NCEPDEV/nwprod/lib/w3nco/v2.0.6/libw3nco_v2.0.6_4.a(w3fi76.o)
 .debug_line    0x0000000000009a45       0xfc /scratch3/NCEPDEV/nwprod/lib/w3nco/v2.0.6/libw3nco_v2.0.6_4.a(w3fi82.o)
 .debug_line    0x0000000000009b41       0x4b /scratch3/NCEPDEV/nwprod/lib/w3nco/v2.0.6/libw3nco_v2.0.6_4.a(gbytec.o)
 .debug_line    0x0000000000009b8c       0xaf /scratch3/NCEPDEV/nwprod/lib/w3nco/v2.0.6/libw3nco_v2.0.6_4.a(gbytesc.o)
 .debug_line    0x0000000000009c3b      0x147 /scratch3/NCEPDEV/nwprod/lib/w3nco/v2.0.6/libw3nco_v2.0.6_4.a(getbit.o)
 .debug_line    0x0000000000009d82       0xa7 /scratch3/NCEPDEV/nwprod/lib/w3nco/v2.0.6/libw3nco_v2.0.6_4.a(getgb1r.o)
 .debug_line    0x0000000000009e29      0x268 /scratch3/NCEPDEV/nwprod/lib/w3nco/v2.0.6/libw3nco_v2.0.6_4.a(getgb1s.o)
 .debug_line    0x000000000000a091       0x8d /scratch3/NCEPDEV/nwprod/lib/w3nco/v2.0.6/libw3nco_v2.0.6_4.a(pdsens.o)
 .debug_line    0x000000000000a11e       0x88 /scratch3/NCEPDEV/nwprod/lib/w3nco/v2.0.6/libw3nco_v2.0.6_4.a(pdseup.o)
 .debug_line    0x000000000000a1a6       0x49 /scratch3/NCEPDEV/nwprod/lib/w3nco/v2.0.6/libw3nco_v2.0.6_4.a(w3fi01.o)
 .debug_line    0x000000000000a1ef       0xf8 /scratch3/NCEPDEV/nwprod/lib/w3nco/v2.0.6/libw3nco_v2.0.6_4.a(w3fi58.o)
 .debug_line    0x000000000000a2e7      0x115 /scratch3/NCEPDEV/nwprod/lib/w3nco/v2.0.6/libw3nco_v2.0.6_4.a(w3fi59.o)
 .debug_line    0x000000000000a3fc     0x376c /scratch3/NCEPDEV/nwprod/lib/w3nco/v2.0.6/libw3nco_v2.0.6_4.a(w3fi63.o)
 .debug_line    0x000000000000db68      0x694 /scratch3/NCEPDEV/nwprod/lib/w3nco/v2.0.6/libw3nco_v2.0.6_4.a(w3fi71.o)
 .debug_line    0x000000000000e1fc      0x15e /scratch3/NCEPDEV/nwprod/lib/w3nco/v2.0.6/libw3nco_v2.0.6_4.a(w3fi83.o)
 .debug_line    0x000000000000e35a     0x2dd2 /apps/netcdf/3.6.3-intel/lib/libnetcdf.a(netcdf.o)
 .debug_line    0x000000000001112c      0x1bd /apps/netcdf/3.6.3-intel/lib/libnetcdf.a(fort-attio.o)
 .debug_line    0x00000000000112e9      0x178 /apps/netcdf/3.6.3-intel/lib/libnetcdf.a(fort-control.o)
 .debug_line    0x0000000000011461      0x122 /apps/netcdf/3.6.3-intel/lib/libnetcdf.a(fort-dim.o)
 .debug_line    0x0000000000011583      0x159 /apps/netcdf/3.6.3-intel/lib/libnetcdf.a(fort-genatt.o)
 .debug_line    0x00000000000116dc       0xe4 /apps/netcdf/3.6.3-intel/lib/libnetcdf.a(fort-geninq.o)
 .debug_line    0x00000000000117c0      0x159 /apps/netcdf/3.6.3-intel/lib/libnetcdf.a(fort-genvar.o)
 .debug_line    0x0000000000011919      0x141 /apps/netcdf/3.6.3-intel/lib/libnetcdf.a(fort-lib.o)
 .debug_line    0x0000000000011a5a       0xcf /apps/netcdf/3.6.3-intel/lib/libnetcdf.a(fort-misc.o)
 .debug_line    0x0000000000011b29      0x140 /apps/netcdf/3.6.3-intel/lib/libnetcdf.a(fort-var1io.o)
 .debug_line    0x0000000000011c69      0x140 /apps/netcdf/3.6.3-intel/lib/libnetcdf.a(fort-varaio.o)
 .debug_line    0x0000000000011da9      0x148 /apps/netcdf/3.6.3-intel/lib/libnetcdf.a(fort-varmio.o)
 .debug_line    0x0000000000011ef1      0x14e /apps/netcdf/3.6.3-intel/lib/libnetcdf.a(fort-varsio.o)
 .debug_line    0x000000000001203f      0xa8c /apps/netcdf/3.6.3-intel/lib/libnetcdf.a(attr.o)
 .debug_line    0x0000000000012acb      0xc8c /apps/netcdf/3.6.3-intel/lib/libnetcdf.a(ncx.o)
 .debug_line    0x0000000000013757     0x2cdb /apps/netcdf/3.6.3-intel/lib/libnetcdf.a(putget.o)
 .debug_line    0x0000000000016432      0x2d3 /apps/netcdf/3.6.3-intel/lib/libnetcdf.a(dim.o)
 .debug_line    0x0000000000016705       0xc9 /apps/netcdf/3.6.3-intel/lib/libnetcdf.a(error.o)
 .debug_line    0x00000000000167ce       0x3e /apps/netcdf/3.6.3-intel/lib/libnetcdf.a(libvers.o)
 .debug_line    0x000000000001680c      0x60a /apps/netcdf/3.6.3-intel/lib/libnetcdf.a(nc.o)
 .debug_line    0x0000000000016e16      0x184 /apps/netcdf/3.6.3-intel/lib/libnetcdf.a(string.o)
 .debug_line    0x0000000000016f9a      0x5ac /apps/netcdf/3.6.3-intel/lib/libnetcdf.a(v1hpg.o)
 .debug_line    0x0000000000017546      0x3db /apps/netcdf/3.6.3-intel/lib/libnetcdf.a(var.o)
 .debug_line    0x0000000000017921      0x343 /apps/netcdf/3.6.3-intel/lib/libnetcdf.a(utf8proc.o)
 .debug_line    0x0000000000017c64      0x583 /apps/netcdf/3.6.3-intel/lib/libnetcdf.a(posixio.o)

.debug_frame    0x0000000000000000     0x6478
 *(.debug_frame)
 .debug_frame   0x0000000000000000     0x12f8 /scratch3/NCEPDEV/nwprod/lib/nemsio/v2.2.1/libnemsio_v2.2.1.a(nemsio_openclose.o)
 .debug_frame   0x00000000000012f8      0x8a8 /scratch3/NCEPDEV/nwprod/lib/nemsio/v2.2.1/libnemsio_v2.2.1.a(nemsio_read.o)
 .debug_frame   0x0000000000001ba0      0x860 /scratch3/NCEPDEV/nwprod/lib/nemsio/v2.2.1/libnemsio_v2.2.1.a(nemsio_write.o)
 .debug_frame   0x0000000000002400      0x190 /scratch3/NCEPDEV/nwprod/lib/w3nco/v2.0.6/libw3nco_v2.0.6_4.a(getgbm.o)
 .debug_frame   0x0000000000002590       0xa0 /scratch3/NCEPDEV/nwprod/lib/w3nco/v2.0.6/libw3nco_v2.0.6_4.a(getgi.o)
 .debug_frame   0x0000000000002630       0x88 /scratch3/NCEPDEV/nwprod/lib/w3nco/v2.0.6/libw3nco_v2.0.6_4.a(getgir.o)
 .debug_frame   0x00000000000026b8       0x80 /scratch3/NCEPDEV/nwprod/lib/w3nco/v2.0.6/libw3nco_v2.0.6_4.a(ixgb.o)
 .debug_frame   0x0000000000002738       0x30 /scratch3/NCEPDEV/nwprod/lib/w3nco/v2.0.6/libw3nco_v2.0.6_4.a(lengds.o)
 .debug_frame   0x0000000000002768       0x68 /scratch3/NCEPDEV/nwprod/lib/w3nco/v2.0.6/libw3nco_v2.0.6_4.a(putgben.o)
 .debug_frame   0x00000000000027d0       0x48 /scratch3/NCEPDEV/nwprod/lib/w3nco/v2.0.6/libw3nco_v2.0.6_4.a(r63w72.o)
 .debug_frame   0x0000000000002818       0x40 /scratch3/NCEPDEV/nwprod/lib/w3nco/v2.0.6/libw3nco_v2.0.6_4.a(sbytec.o)
 .debug_frame   0x0000000000002858       0x68 /scratch3/NCEPDEV/nwprod/lib/w3nco/v2.0.6/libw3nco_v2.0.6_4.a(sbytesc.o)
 .debug_frame   0x00000000000028c0       0x68 /scratch3/NCEPDEV/nwprod/lib/w3nco/v2.0.6/libw3nco_v2.0.6_4.a(skgb.o)
 .debug_frame   0x0000000000002928       0x70 /scratch3/NCEPDEV/nwprod/lib/w3nco/v2.0.6/libw3nco_v2.0.6_4.a(w3fi68.o)
 .debug_frame   0x0000000000002998      0x100 /scratch3/NCEPDEV/nwprod/lib/w3nco/v2.0.6/libw3nco_v2.0.6_4.a(w3fi72.o)
 .debug_frame   0x0000000000002a98       0x78 /scratch3/NCEPDEV/nwprod/lib/w3nco/v2.0.6/libw3nco_v2.0.6_4.a(w3fi73.o)
 .debug_frame   0x0000000000002b10       0x90 /scratch3/NCEPDEV/nwprod/lib/w3nco/v2.0.6/libw3nco_v2.0.6_4.a(w3fi74.o)
 .debug_frame   0x0000000000002ba0      0x368 /scratch3/NCEPDEV/nwprod/lib/w3nco/v2.0.6/libw3nco_v2.0.6_4.a(w3fi75.o)
 .debug_frame   0x0000000000002f08       0x80 /scratch3/NCEPDEV/nwprod/lib/w3nco/v2.0.6/libw3nco_v2.0.6_4.a(w3fi76.o)
 .debug_frame   0x0000000000002f88       0x80 /scratch3/NCEPDEV/nwprod/lib/w3nco/v2.0.6/libw3nco_v2.0.6_4.a(w3fi82.o)
 .debug_frame   0x0000000000003008       0x40 /scratch3/NCEPDEV/nwprod/lib/w3nco/v2.0.6/libw3nco_v2.0.6_4.a(gbytec.o)
 .debug_frame   0x0000000000003048       0x58 /scratch3/NCEPDEV/nwprod/lib/w3nco/v2.0.6/libw3nco_v2.0.6_4.a(gbytesc.o)
 .debug_frame   0x00000000000030a0       0x80 /scratch3/NCEPDEV/nwprod/lib/w3nco/v2.0.6/libw3nco_v2.0.6_4.a(getbit.o)
 .debug_frame   0x0000000000003120       0x68 /scratch3/NCEPDEV/nwprod/lib/w3nco/v2.0.6/libw3nco_v2.0.6_4.a(getgb1r.o)
 .debug_frame   0x0000000000003188       0xc8 /scratch3/NCEPDEV/nwprod/lib/w3nco/v2.0.6/libw3nco_v2.0.6_4.a(getgb1s.o)
 .debug_frame   0x0000000000003250       0x88 /scratch3/NCEPDEV/nwprod/lib/w3nco/v2.0.6/libw3nco_v2.0.6_4.a(pdsens.o)
 .debug_frame   0x00000000000032d8       0x88 /scratch3/NCEPDEV/nwprod/lib/w3nco/v2.0.6/libw3nco_v2.0.6_4.a(pdseup.o)
 .debug_frame   0x0000000000003360       0x30 /scratch3/NCEPDEV/nwprod/lib/w3nco/v2.0.6/libw3nco_v2.0.6_4.a(w3fi01.o)
 .debug_frame   0x0000000000003390       0xb0 /scratch3/NCEPDEV/nwprod/lib/w3nco/v2.0.6/libw3nco_v2.0.6_4.a(w3fi58.o)
 .debug_frame   0x0000000000003440       0xb0 /scratch3/NCEPDEV/nwprod/lib/w3nco/v2.0.6/libw3nco_v2.0.6_4.a(w3fi59.o)
 .debug_frame   0x00000000000034f0      0xf60 /scratch3/NCEPDEV/nwprod/lib/w3nco/v2.0.6/libw3nco_v2.0.6_4.a(w3fi63.o)
 .debug_frame   0x0000000000004450       0x30 /scratch3/NCEPDEV/nwprod/lib/w3nco/v2.0.6/libw3nco_v2.0.6_4.a(w3fi71.o)
 .debug_frame   0x0000000000004480       0x80 /scratch3/NCEPDEV/nwprod/lib/w3nco/v2.0.6/libw3nco_v2.0.6_4.a(w3fi83.o)
 .debug_frame   0x0000000000004500     0x1f78 /apps/netcdf/3.6.3-intel/lib/libnetcdf.a(netcdf.o)

.debug_str      0x0000000000000000     0x8a63
 *(.debug_str)
 .debug_str     0x0000000000000000      0xfaf /scratch3/NCEPDEV/nwprod/lib/nemsio/v2.2.1/libnemsio_v2.2.1.a(nemsio_openclose.o)
                                       0x10ec (size before relaxing)
 .debug_str     0x0000000000000faf      0x397 /scratch3/NCEPDEV/nwprod/lib/nemsio/v2.2.1/libnemsio_v2.2.1.a(nemsio_read.o)
                                        0xac9 (size before relaxing)
 .debug_str     0x0000000000001346      0x328 /scratch3/NCEPDEV/nwprod/lib/nemsio/v2.2.1/libnemsio_v2.2.1.a(nemsio_write.o)
                                        0xae1 (size before relaxing)
 .debug_str     0x000000000000166e       0x87 /scratch3/NCEPDEV/nwprod/lib/w3nco/v2.0.6/libw3nco_v2.0.6_4.a(getgbm.o)
                                        0x151 (size before relaxing)
 .debug_str     0x00000000000016f5       0x3a /scratch3/NCEPDEV/nwprod/lib/w3nco/v2.0.6/libw3nco_v2.0.6_4.a(getgi.o)
                                        0x122 (size before relaxing)
 .debug_str     0x000000000000172f       0x32 /scratch3/NCEPDEV/nwprod/lib/w3nco/v2.0.6/libw3nco_v2.0.6_4.a(getgir.o)
                                        0x11f (size before relaxing)
 .debug_str     0x0000000000001761       0xf2 /scratch3/NCEPDEV/nwprod/lib/w3nco/v2.0.6/libw3nco_v2.0.6_4.a(ixgb.o)
                                        0x1d0 (size before relaxing)
 .debug_str     0x0000000000001853        0x9 /scratch3/NCEPDEV/nwprod/lib/w3nco/v2.0.6/libw3nco_v2.0.6_4.a(lengds.o)
                                         0xc4 (size before relaxing)
 .debug_str     0x000000000000185c       0x63 /scratch3/NCEPDEV/nwprod/lib/w3nco/v2.0.6/libw3nco_v2.0.6_4.a(putgben.o)
                                        0x14f (size before relaxing)
 .debug_str     0x00000000000018bf       0x10 /scratch3/NCEPDEV/nwprod/lib/w3nco/v2.0.6/libw3nco_v2.0.6_4.a(r63w72.o)
                                         0xd3 (size before relaxing)
 .debug_str     0x00000000000018cf       0x30 /scratch3/NCEPDEV/nwprod/lib/w3nco/v2.0.6/libw3nco_v2.0.6_4.a(sbytec.o)
                                         0xe5 (size before relaxing)
 .debug_str     0x00000000000018ff       0x4b /scratch3/NCEPDEV/nwprod/lib/w3nco/v2.0.6/libw3nco_v2.0.6_4.a(sbytesc.o)
                                        0x125 (size before relaxing)
 .debug_str     0x000000000000194a       0x21 /scratch3/NCEPDEV/nwprod/lib/w3nco/v2.0.6/libw3nco_v2.0.6_4.a(skgb.o)
                                         0xe7 (size before relaxing)
 .debug_str     0x000000000000196b       0x28 /scratch3/NCEPDEV/nwprod/lib/w3nco/v2.0.6/libw3nco_v2.0.6_4.a(w3fi68.o)
                                         0xe6 (size before relaxing)
 .debug_str     0x0000000000001993      0x12c /scratch3/NCEPDEV/nwprod/lib/w3nco/v2.0.6/libw3nco_v2.0.6_4.a(w3fi72.o)
                                        0x21c (size before relaxing)
 .debug_str     0x0000000000001abf       0x21 /scratch3/NCEPDEV/nwprod/lib/w3nco/v2.0.6/libw3nco_v2.0.6_4.a(w3fi73.o)
                                         0xf9 (size before relaxing)
 .debug_str     0x0000000000001ae0       0x4e /scratch3/NCEPDEV/nwprod/lib/w3nco/v2.0.6/libw3nco_v2.0.6_4.a(w3fi74.o)
                                        0x123 (size before relaxing)
 .debug_str     0x0000000000001b2e      0x2cc /scratch3/NCEPDEV/nwprod/lib/w3nco/v2.0.6/libw3nco_v2.0.6_4.a(w3fi75.o)
                                        0x432 (size before relaxing)
 .debug_str     0x0000000000001dfa       0x36 /scratch3/NCEPDEV/nwprod/lib/w3nco/v2.0.6/libw3nco_v2.0.6_4.a(w3fi76.o)
                                         0xf2 (size before relaxing)
 .debug_str     0x0000000000001e30       0x32 /scratch3/NCEPDEV/nwprod/lib/w3nco/v2.0.6/libw3nco_v2.0.6_4.a(w3fi82.o)
                                        0x113 (size before relaxing)
 .debug_str     0x0000000000001e62       0x2d /scratch3/NCEPDEV/nwprod/lib/w3nco/v2.0.6/libw3nco_v2.0.6_4.a(gbytec.o)
                                         0xe8 (size before relaxing)
 .debug_str     0x0000000000001e8f       0x22 /scratch3/NCEPDEV/nwprod/lib/w3nco/v2.0.6/libw3nco_v2.0.6_4.a(gbytesc.o)
                                        0x116 (size before relaxing)
 .debug_str     0x0000000000001eb1       0x21 /scratch3/NCEPDEV/nwprod/lib/w3nco/v2.0.6/libw3nco_v2.0.6_4.a(getbit.o)
                                         0xdd (size before relaxing)
 .debug_str     0x0000000000001ed2       0x18 /scratch3/NCEPDEV/nwprod/lib/w3nco/v2.0.6/libw3nco_v2.0.6_4.a(getgb1r.o)
                                        0x134 (size before relaxing)
 .debug_str     0x0000000000001eea       0x6c /scratch3/NCEPDEV/nwprod/lib/w3nco/v2.0.6/libw3nco_v2.0.6_4.a(getgb1s.o)
                                        0x1a1 (size before relaxing)
 .debug_str     0x0000000000001f56       0x32 /scratch3/NCEPDEV/nwprod/lib/w3nco/v2.0.6/libw3nco_v2.0.6_4.a(pdsens.o)
                                        0x119 (size before relaxing)
 .debug_str     0x0000000000001f88       0x21 /scratch3/NCEPDEV/nwprod/lib/w3nco/v2.0.6/libw3nco_v2.0.6_4.a(pdseup.o)
                                        0x11f (size before relaxing)
 .debug_str     0x0000000000001fa9       0x10 /scratch3/NCEPDEV/nwprod/lib/w3nco/v2.0.6/libw3nco_v2.0.6_4.a(w3fi01.o)
                                         0xbf (size before relaxing)
 .debug_str     0x0000000000001fb9       0x5e /scratch3/NCEPDEV/nwprod/lib/w3nco/v2.0.6/libw3nco_v2.0.6_4.a(w3fi58.o)
                                        0x125 (size before relaxing)
 .debug_str     0x0000000000002017       0x2d /scratch3/NCEPDEV/nwprod/lib/w3nco/v2.0.6/libw3nco_v2.0.6_4.a(w3fi59.o)
                                        0x135 (size before relaxing)
 .debug_str     0x0000000000002044      0x1e9 /scratch3/NCEPDEV/nwprod/lib/w3nco/v2.0.6/libw3nco_v2.0.6_4.a(w3fi63.o)
                                        0x34b (size before relaxing)
 .debug_str     0x000000000000222d      0x450 /scratch3/NCEPDEV/nwprod/lib/w3nco/v2.0.6/libw3nco_v2.0.6_4.a(w3fi71.o)
                                        0x533 (size before relaxing)
 .debug_str     0x000000000000267d       0x1c /scratch3/NCEPDEV/nwprod/lib/w3nco/v2.0.6/libw3nco_v2.0.6_4.a(w3fi83.o)
                                        0x116 (size before relaxing)
 .debug_str     0x0000000000002699     0x180d /apps/netcdf/3.6.3-intel/lib/libnetcdf.a(netcdf.o)
                                       0x18bf (size before relaxing)
 .debug_str     0x0000000000003ea6      0x354 /apps/netcdf/3.6.3-intel/lib/libnetcdf.a(fort-attio.o)
                                        0x3b7 (size before relaxing)
 .debug_str     0x00000000000041fa       0xf0 /apps/netcdf/3.6.3-intel/lib/libnetcdf.a(fort-control.o)
                                        0x376 (size before relaxing)
 .debug_str     0x00000000000042ea       0x5f /apps/netcdf/3.6.3-intel/lib/libnetcdf.a(fort-dim.o)
                                        0x2e5 (size before relaxing)
 .debug_str     0x0000000000004349       0x8f /apps/netcdf/3.6.3-intel/lib/libnetcdf.a(fort-genatt.o)
                                        0x35e (size before relaxing)
 .debug_str     0x00000000000043d8       0x60 /apps/netcdf/3.6.3-intel/lib/libnetcdf.a(fort-geninq.o)
                                        0x2d8 (size before relaxing)
 .debug_str     0x0000000000004438       0xaa /apps/netcdf/3.6.3-intel/lib/libnetcdf.a(fort-genvar.o)
                                        0x379 (size before relaxing)
 .debug_str     0x00000000000044e2       0xda /apps/netcdf/3.6.3-intel/lib/libnetcdf.a(fort-lib.o)
                                        0x35d (size before relaxing)
 .debug_str     0x00000000000045bc       0x4a /apps/netcdf/3.6.3-intel/lib/libnetcdf.a(fort-misc.o)
                                        0x2bc (size before relaxing)
 .debug_str     0x0000000000004606      0x102 /apps/netcdf/3.6.3-intel/lib/libnetcdf.a(fort-var1io.o)
                                        0x38e (size before relaxing)
 .debug_str     0x0000000000004708      0x102 /apps/netcdf/3.6.3-intel/lib/libnetcdf.a(fort-varaio.o)
                                        0x38e (size before relaxing)
 .debug_str     0x000000000000480a       0xe8 /apps/netcdf/3.6.3-intel/lib/libnetcdf.a(fort-varmio.o)
                                        0x37e (size before relaxing)
 .debug_str     0x00000000000048f2      0x102 /apps/netcdf/3.6.3-intel/lib/libnetcdf.a(fort-varsio.o)
                                        0x398 (size before relaxing)
 .debug_str     0x00000000000049f4      0x4be /apps/netcdf/3.6.3-intel/lib/libnetcdf.a(attr.o)
                                        0x6cd (size before relaxing)
 .debug_str     0x0000000000004eb2      0xdf6 /apps/netcdf/3.6.3-intel/lib/libnetcdf.a(ncx.o)
                                        0xf4a (size before relaxing)
 .debug_str     0x0000000000005ca8      0xe35 /apps/netcdf/3.6.3-intel/lib/libnetcdf.a(putget.o)
                                       0x11b4 (size before relaxing)
 .debug_str     0x0000000000006add      0x10c /apps/netcdf/3.6.3-intel/lib/libnetcdf.a(dim.o)
                                        0x416 (size before relaxing)
 .debug_str     0x0000000000006be9       0x1c /apps/netcdf/3.6.3-intel/lib/libnetcdf.a(error.o)
                                        0x28d (size before relaxing)
 .debug_str     0x0000000000006c05       0x24 /apps/netcdf/3.6.3-intel/lib/libnetcdf.a(libvers.o)
                                         0xa7 (size before relaxing)
 .debug_str     0x0000000000006c29      0x34d /apps/netcdf/3.6.3-intel/lib/libnetcdf.a(nc.o)
                                        0x69b (size before relaxing)
 .debug_str     0x0000000000006f76       0xd3 /apps/netcdf/3.6.3-intel/lib/libnetcdf.a(string.o)
                                        0x38b (size before relaxing)
 .debug_str     0x0000000000007049      0x2ef /apps/netcdf/3.6.3-intel/lib/libnetcdf.a(v1hpg.o)
                                        0x7ca (size before relaxing)
 .debug_str     0x0000000000007338      0x16c /apps/netcdf/3.6.3-intel/lib/libnetcdf.a(var.o)
                                        0x493 (size before relaxing)
 .debug_str     0x00000000000074a4      0x3bc /apps/netcdf/3.6.3-intel/lib/libnetcdf.a(utf8proc.o)
                                        0x51b (size before relaxing)
 .debug_str     0x0000000000007860     0x1203 /apps/netcdf/3.6.3-intel/lib/libnetcdf.a(posixio.o)
                                       0x142e (size before relaxing)

.debug_loc      0x0000000000000000    0x55058
 *(.debug_loc)
 .debug_loc     0x0000000000000000     0x1ee1 /apps/netcdf/3.6.3-intel/lib/libnetcdf.a(fort-attio.o)
 .debug_loc     0x0000000000001ee1     0x161e /apps/netcdf/3.6.3-intel/lib/libnetcdf.a(fort-control.o)
 .debug_loc     0x00000000000034ff      0xb9d /apps/netcdf/3.6.3-intel/lib/libnetcdf.a(fort-dim.o)
 .debug_loc     0x000000000000409c     0x1648 /apps/netcdf/3.6.3-intel/lib/libnetcdf.a(fort-genatt.o)
 .debug_loc     0x00000000000056e4      0x2b8 /apps/netcdf/3.6.3-intel/lib/libnetcdf.a(fort-geninq.o)
 .debug_loc     0x000000000000599c      0xeb8 /apps/netcdf/3.6.3-intel/lib/libnetcdf.a(fort-genvar.o)
 .debug_loc     0x0000000000006854      0x835 /apps/netcdf/3.6.3-intel/lib/libnetcdf.a(fort-lib.o)
 .debug_loc     0x0000000000007089      0x1d9 /apps/netcdf/3.6.3-intel/lib/libnetcdf.a(fort-misc.o)
 .debug_loc     0x0000000000007262      0xb0c /apps/netcdf/3.6.3-intel/lib/libnetcdf.a(fort-var1io.o)
 .debug_loc     0x0000000000007d6e      0xe00 /apps/netcdf/3.6.3-intel/lib/libnetcdf.a(fort-varaio.o)
 .debug_loc     0x0000000000008b6e      0xe4c /apps/netcdf/3.6.3-intel/lib/libnetcdf.a(fort-varmio.o)
 .debug_loc     0x00000000000099ba      0xfa4 /apps/netcdf/3.6.3-intel/lib/libnetcdf.a(fort-varsio.o)
 .debug_loc     0x000000000000a95e     0x797d /apps/netcdf/3.6.3-intel/lib/libnetcdf.a(attr.o)
 .debug_loc     0x00000000000122db     0xb5b7 /apps/netcdf/3.6.3-intel/lib/libnetcdf.a(ncx.o)
 .debug_loc     0x000000000001d892    0x28437 /apps/netcdf/3.6.3-intel/lib/libnetcdf.a(putget.o)
 .debug_loc     0x0000000000045cc9     0x135f /apps/netcdf/3.6.3-intel/lib/libnetcdf.a(dim.o)
 .debug_loc     0x0000000000047028       0x6e /apps/netcdf/3.6.3-intel/lib/libnetcdf.a(error.o)
 .debug_loc     0x0000000000047096     0x3a84 /apps/netcdf/3.6.3-intel/lib/libnetcdf.a(nc.o)
 .debug_loc     0x000000000004ab1a      0x4ef /apps/netcdf/3.6.3-intel/lib/libnetcdf.a(string.o)
 .debug_loc     0x000000000004b009     0x349e /apps/netcdf/3.6.3-intel/lib/libnetcdf.a(v1hpg.o)
 .debug_loc     0x000000000004e4a7     0x1eed /apps/netcdf/3.6.3-intel/lib/libnetcdf.a(var.o)
 .debug_loc     0x0000000000050394     0x190d /apps/netcdf/3.6.3-intel/lib/libnetcdf.a(utf8proc.o)
 .debug_loc     0x0000000000051ca1     0x33b7 /apps/netcdf/3.6.3-intel/lib/libnetcdf.a(posixio.o)

.debug_macinfo
 *(.debug_macinfo)

.debug_weaknames
 *(.debug_weaknames)

.debug_funcnames
 *(.debug_funcnames)

.debug_typenames
 *(.debug_typenames)

.debug_varnames
 *(.debug_varnames)

.debug_pubtypes
                0x0000000000000000     0x10d1
 *(.debug_pubtypes)
 .debug_pubtypes
                0x0000000000000000       0x6e /apps/netcdf/3.6.3-intel/lib/libnetcdf.a(fort-attio.o)
 .debug_pubtypes
                0x000000000000006e       0x62 /apps/netcdf/3.6.3-intel/lib/libnetcdf.a(fort-control.o)
 .debug_pubtypes
                0x00000000000000d0       0x62 /apps/netcdf/3.6.3-intel/lib/libnetcdf.a(fort-dim.o)
 .debug_pubtypes
                0x0000000000000132       0x6e /apps/netcdf/3.6.3-intel/lib/libnetcdf.a(fort-genatt.o)
 .debug_pubtypes
                0x00000000000001a0       0x62 /apps/netcdf/3.6.3-intel/lib/libnetcdf.a(fort-geninq.o)
 .debug_pubtypes
                0x0000000000000202       0x6e /apps/netcdf/3.6.3-intel/lib/libnetcdf.a(fort-genvar.o)
 .debug_pubtypes
                0x0000000000000270       0x70 /apps/netcdf/3.6.3-intel/lib/libnetcdf.a(fort-lib.o)
 .debug_pubtypes
                0x00000000000002e0       0x62 /apps/netcdf/3.6.3-intel/lib/libnetcdf.a(fort-misc.o)
 .debug_pubtypes
                0x0000000000000342       0x62 /apps/netcdf/3.6.3-intel/lib/libnetcdf.a(fort-var1io.o)
 .debug_pubtypes
                0x00000000000003a4       0x62 /apps/netcdf/3.6.3-intel/lib/libnetcdf.a(fort-varaio.o)
 .debug_pubtypes
                0x0000000000000406       0x70 /apps/netcdf/3.6.3-intel/lib/libnetcdf.a(fort-varmio.o)
 .debug_pubtypes
                0x0000000000000476       0x70 /apps/netcdf/3.6.3-intel/lib/libnetcdf.a(fort-varsio.o)
 .debug_pubtypes
                0x00000000000004e6      0x15d /apps/netcdf/3.6.3-intel/lib/libnetcdf.a(attr.o)
 .debug_pubtypes
                0x0000000000000643       0x5f /apps/netcdf/3.6.3-intel/lib/libnetcdf.a(ncx.o)
 .debug_pubtypes
                0x00000000000006a2      0x16b /apps/netcdf/3.6.3-intel/lib/libnetcdf.a(putget.o)
 .debug_pubtypes
                0x000000000000080d      0x149 /apps/netcdf/3.6.3-intel/lib/libnetcdf.a(dim.o)
 .debug_pubtypes
                0x0000000000000956       0x62 /apps/netcdf/3.6.3-intel/lib/libnetcdf.a(error.o)
 .debug_pubtypes
                0x00000000000009b8       0x12 /apps/netcdf/3.6.3-intel/lib/libnetcdf.a(libvers.o)
 .debug_pubtypes
                0x00000000000009ca      0x149 /apps/netcdf/3.6.3-intel/lib/libnetcdf.a(nc.o)
 .debug_pubtypes
                0x0000000000000b13       0x94 /apps/netcdf/3.6.3-intel/lib/libnetcdf.a(string.o)
 .debug_pubtypes
                0x0000000000000ba7      0x1b7 /apps/netcdf/3.6.3-intel/lib/libnetcdf.a(v1hpg.o)
 .debug_pubtypes
                0x0000000000000d5e      0x149 /apps/netcdf/3.6.3-intel/lib/libnetcdf.a(var.o)
 .debug_pubtypes
                0x0000000000000ea7       0xb4 /apps/netcdf/3.6.3-intel/lib/libnetcdf.a(utf8proc.o)
 .debug_pubtypes
                0x0000000000000f5b      0x176 /apps/netcdf/3.6.3-intel/lib/libnetcdf.a(posixio.o)

.debug_ranges   0x0000000000000000     0x7020
 *(.debug_ranges)
 .debug_ranges  0x0000000000000000      0x270 /scratch3/NCEPDEV/nwprod/lib/nemsio/v2.2.1/libnemsio_v2.2.1.a(nemsio_openclose.o)
 .debug_ranges  0x0000000000000270      0x230 /scratch3/NCEPDEV/nwprod/lib/nemsio/v2.2.1/libnemsio_v2.2.1.a(nemsio_write.o)
 .debug_ranges  0x00000000000004a0      0x500 /scratch3/NCEPDEV/nwprod/lib/w3nco/v2.0.6/libw3nco_v2.0.6_4.a(w3fi75.o)
 .debug_ranges  0x00000000000009a0       0xb0 /scratch3/NCEPDEV/nwprod/lib/w3nco/v2.0.6/libw3nco_v2.0.6_4.a(w3fi63.o)
 .debug_ranges  0x0000000000000a50      0xc30 /apps/netcdf/3.6.3-intel/lib/libnetcdf.a(attr.o)
 .debug_ranges  0x0000000000001680      0xe10 /apps/netcdf/3.6.3-intel/lib/libnetcdf.a(ncx.o)
 .debug_ranges  0x0000000000002490     0x3540 /apps/netcdf/3.6.3-intel/lib/libnetcdf.a(putget.o)
 .debug_ranges  0x00000000000059d0       0xf0 /apps/netcdf/3.6.3-intel/lib/libnetcdf.a(dim.o)
 .debug_ranges  0x0000000000005ac0       0x30 /apps/netcdf/3.6.3-intel/lib/libnetcdf.a(error.o)
 .debug_ranges  0x0000000000005af0      0x550 /apps/netcdf/3.6.3-intel/lib/libnetcdf.a(nc.o)
 .debug_ranges  0x0000000000006040      0xb10 /apps/netcdf/3.6.3-intel/lib/libnetcdf.a(v1hpg.o)
 .debug_ranges  0x0000000000006b50      0x120 /apps/netcdf/3.6.3-intel/lib/libnetcdf.a(var.o)
 .debug_ranges  0x0000000000006c70      0x230 /apps/netcdf/3.6.3-intel/lib/libnetcdf.a(utf8proc.o)
 .debug_ranges  0x0000000000006ea0      0x180 /apps/netcdf/3.6.3-intel/lib/libnetcdf.a(posixio.o)

.debug_macro
 *(.debug_macro)

.gnu.attributes
 *(.gnu.attributes)

/DISCARD/
 *(.note.GNU-stack)
 *(.gnu_debuglink)
 *(.gnu.lto_*)
OUTPUT(calc_increment_ens.x elf64-x86-64)
